
/Users/rohanarora/Repos/PersonlaProjects/GGVTSPico/build/src/GGVTSPico.elf:     file format elf32-littlearm

Sections:
Idx Name          Size      VMA       LMA       File off  Algn
  0 .boot2        00000100  10000000  10000000  00001000  2**0
                  CONTENTS, ALLOC, LOAD, READONLY, CODE
  1 .text         00003a50  10000100  10000100  00001100  2**3
                  CONTENTS, ALLOC, LOAD, READONLY, CODE
  2 .rodata       00000628  10003b50  10003b50  00004b50  2**2
                  CONTENTS, ALLOC, LOAD, READONLY, DATA
  3 .binary_info  00000024  10004178  10004178  00005178  2**2
                  CONTENTS, ALLOC, LOAD, READONLY, DATA
  4 .ram_vector_table 000000c0  20000000  20000000  00007000  2**2
                  ALLOC
  5 .uninitialized_data 00000000  200000c0  200000c0  000062c0  2**0
                  CONTENTS
  6 .data         00000200  200000c0  1000419c  000060c0  2**4
                  CONTENTS, ALLOC, LOAD, READONLY, CODE
  7 .tdata        00000000  200002c0  200002c0  000062c0  2**0
                  CONTENTS, ALLOC, LOAD, DATA, THREAD_LOCAL
  8 .tbss         00000000  200002c0  200002c0  00000000  2**0
                  ALLOC, THREAD_LOCAL
  9 .bss          00000994  200002c0  1000439c  000062c0  2**3
                  ALLOC
 10 .heap         0003f3ac  20000c54  1000439c  00006c54  2**2
                  ALLOC, READONLY
 11 .scratch_x    00000000  20040000  20040000  000062c0  2**0
                  CONTENTS
 12 .scratch_y    00000000  20041000  20041000  000062c0  2**0
                  CONTENTS
 13 .stack_dummy  00000800  20041000  20041000  000062c0  2**5
                  CONTENTS, READONLY
 14 .ARM.attributes 00000028  00000000  00000000  00006ac0  2**0
                  CONTENTS, READONLY
 15 .comment      00000045  00000000  00000000  00006ae8  2**0
                  CONTENTS, READONLY
 16 .debug_info   0002282d  00000000  00000000  00006b2d  2**0
                  CONTENTS, READONLY, DEBUGGING, OCTETS
 17 .debug_abbrev 0000690a  00000000  00000000  0002935a  2**0
                  CONTENTS, READONLY, DEBUGGING, OCTETS
 18 .debug_loclists 00011b0b  00000000  00000000  0002fc64  2**0
                  CONTENTS, READONLY, DEBUGGING, OCTETS
 19 .debug_aranges 00001138  00000000  00000000  00041770  2**3
                  CONTENTS, READONLY, DEBUGGING, OCTETS
 20 .debug_rnglists 0000312a  00000000  00000000  000428a8  2**0
                  CONTENTS, READONLY, DEBUGGING, OCTETS
 21 .debug_line   0001aff4  00000000  00000000  000459d2  2**0
                  CONTENTS, READONLY, DEBUGGING, OCTETS
 22 .debug_str    0000504c  00000000  00000000  000609c6  2**0
                  CONTENTS, READONLY, DEBUGGING, OCTETS
 23 .debug_frame  0000211c  00000000  00000000  00065a14  2**2
                  CONTENTS, READONLY, DEBUGGING, OCTETS
 24 .debug_line_str 00000427  00000000  00000000  00067b30  2**0
                  CONTENTS, READONLY, DEBUGGING, OCTETS

/Users/rohanarora/Repos/PersonlaProjects/GGVTSPico/build/src/GGVTSPico.elf:     file format elf32-littlearm


Disassembly of section .boot2:

10000000 <__boot2_start__>:
10000000:	4b32b500 	.word	0x4b32b500
10000004:	60582021 	.word	0x60582021
10000008:	21026898 	.word	0x21026898
1000000c:	60984388 	.word	0x60984388
10000010:	611860d8 	.word	0x611860d8
10000014:	4b2e6158 	.word	0x4b2e6158
10000018:	60992100 	.word	0x60992100
1000001c:	61592102 	.word	0x61592102
10000020:	22f02101 	.word	0x22f02101
10000024:	492b5099 	.word	0x492b5099
10000028:	21016019 	.word	0x21016019
1000002c:	20356099 	.word	0x20356099
10000030:	f844f000 	.word	0xf844f000
10000034:	42902202 	.word	0x42902202
10000038:	2106d014 	.word	0x2106d014
1000003c:	f0006619 	.word	0xf0006619
10000040:	6e19f834 	.word	0x6e19f834
10000044:	66192101 	.word	0x66192101
10000048:	66182000 	.word	0x66182000
1000004c:	f000661a 	.word	0xf000661a
10000050:	6e19f82c 	.word	0x6e19f82c
10000054:	6e196e19 	.word	0x6e196e19
10000058:	f0002005 	.word	0xf0002005
1000005c:	2101f82f 	.word	0x2101f82f
10000060:	d1f94208 	.word	0xd1f94208
10000064:	60992100 	.word	0x60992100
10000068:	6019491b 	.word	0x6019491b
1000006c:	60592100 	.word	0x60592100
10000070:	481b491a 	.word	0x481b491a
10000074:	21016001 	.word	0x21016001
10000078:	21eb6099 	.word	0x21eb6099
1000007c:	21a06619 	.word	0x21a06619
10000080:	f0006619 	.word	0xf0006619
10000084:	2100f812 	.word	0x2100f812
10000088:	49166099 	.word	0x49166099
1000008c:	60014814 	.word	0x60014814
10000090:	60992101 	.word	0x60992101
10000094:	2800bc01 	.word	0x2800bc01
10000098:	4700d000 	.word	0x4700d000
1000009c:	49134812 	.word	0x49134812
100000a0:	c8036008 	.word	0xc8036008
100000a4:	8808f380 	.word	0x8808f380
100000a8:	b5034708 	.word	0xb5034708
100000ac:	20046a99 	.word	0x20046a99
100000b0:	d0fb4201 	.word	0xd0fb4201
100000b4:	42012001 	.word	0x42012001
100000b8:	bd03d1f8 	.word	0xbd03d1f8
100000bc:	6618b502 	.word	0x6618b502
100000c0:	f7ff6618 	.word	0xf7ff6618
100000c4:	6e18fff2 	.word	0x6e18fff2
100000c8:	bd026e18 	.word	0xbd026e18
100000cc:	40020000 	.word	0x40020000
100000d0:	18000000 	.word	0x18000000
100000d4:	00070000 	.word	0x00070000
100000d8:	005f0300 	.word	0x005f0300
100000dc:	00002221 	.word	0x00002221
100000e0:	180000f4 	.word	0x180000f4
100000e4:	a0002022 	.word	0xa0002022
100000e8:	10000100 	.word	0x10000100
100000ec:	e000ed08 	.word	0xe000ed08
	...
100000fc:	7a4eb274 	.word	0x7a4eb274

Disassembly of section .text:

10000100 <__VECTOR_TABLE>:
10000100:	20042000 	.word	0x20042000
10000104:	100001f7 	.word	0x100001f7
10000108:	100001c3 	.word	0x100001c3
1000010c:	100001c5 	.word	0x100001c5
10000110:	100001c1 	.word	0x100001c1
10000114:	100001c1 	.word	0x100001c1
10000118:	100001c1 	.word	0x100001c1
1000011c:	100001c1 	.word	0x100001c1
10000120:	100001c1 	.word	0x100001c1
10000124:	100001c1 	.word	0x100001c1
10000128:	100001c1 	.word	0x100001c1
1000012c:	100001c7 	.word	0x100001c7
10000130:	100001c1 	.word	0x100001c1
10000134:	100001c1 	.word	0x100001c1
10000138:	100001c9 	.word	0x100001c9
1000013c:	100001cb 	.word	0x100001cb
10000140:	100001cd 	.word	0x100001cd
10000144:	100001cd 	.word	0x100001cd
10000148:	100001cd 	.word	0x100001cd
1000014c:	100001cd 	.word	0x100001cd
10000150:	100001cd 	.word	0x100001cd
10000154:	100001cd 	.word	0x100001cd
10000158:	100001cd 	.word	0x100001cd
1000015c:	100001cd 	.word	0x100001cd
10000160:	100001cd 	.word	0x100001cd
10000164:	100001cd 	.word	0x100001cd
10000168:	100001cd 	.word	0x100001cd
1000016c:	100001cd 	.word	0x100001cd
10000170:	100001cd 	.word	0x100001cd
10000174:	100001cd 	.word	0x100001cd
10000178:	100001cd 	.word	0x100001cd
1000017c:	100001cd 	.word	0x100001cd
10000180:	100001cd 	.word	0x100001cd
10000184:	100001cd 	.word	0x100001cd
10000188:	100001cd 	.word	0x100001cd
1000018c:	100001cd 	.word	0x100001cd
10000190:	100001cd 	.word	0x100001cd
10000194:	100001cd 	.word	0x100001cd
10000198:	100001cd 	.word	0x100001cd
1000019c:	100001cd 	.word	0x100001cd
100001a0:	100001cd 	.word	0x100001cd
100001a4:	100001cd 	.word	0x100001cd
100001a8:	100001cd 	.word	0x100001cd
100001ac:	100001cd 	.word	0x100001cd
100001b0:	100001cd 	.word	0x100001cd
100001b4:	100001cd 	.word	0x100001cd
100001b8:	100001cd 	.word	0x100001cd
100001bc:	100001cd 	.word	0x100001cd

100001c0 <isr_invalid>:
100001c0:	be00      	bkpt	0x0000

100001c2 <isr_nmi>:
100001c2:	be00      	bkpt	0x0000

100001c4 <isr_hardfault>:
100001c4:	be00      	bkpt	0x0000

100001c6 <isr_svcall>:
100001c6:	be00      	bkpt	0x0000

100001c8 <isr_pendsv>:
100001c8:	be00      	bkpt	0x0000

100001ca <isr_systick>:
100001ca:	be00      	bkpt	0x0000

100001cc <__unhandled_user_irq>:
100001cc:	f3ef 8005 	mrs	r0, IPSR
100001d0:	3810      	subs	r0, #16

100001d2 <unhandled_user_irq_num_in_r0>:
100001d2:	be00      	bkpt	0x0000

100001d4 <binary_info_header>:
100001d4:	7188ebf2 	.word	0x7188ebf2
100001d8:	10004178 	.word	0x10004178
100001dc:	1000419c 	.word	0x1000419c
100001e0:	10000238 	.word	0x10000238
100001e4:	e71aa390 	.word	0xe71aa390

100001e8 <_entry_point>:
100001e8:	481e      	ldr	r0, [pc, #120]	@ (10000264 <data_cpy_table+0x2c>)

100001ea <_enter_vtable_in_r0>:
100001ea:	491f      	ldr	r1, [pc, #124]	@ (10000268 <data_cpy_table+0x30>)
100001ec:	6008      	str	r0, [r1, #0]
100001ee:	c806      	ldmia	r0!, {r1, r2}
100001f0:	f381 8808 	msr	MSP, r1
100001f4:	4710      	bx	r2

100001f6 <_reset_handler>:
100001f6:	481d      	ldr	r0, [pc, #116]	@ (1000026c <data_cpy_table+0x34>)
100001f8:	6800      	ldr	r0, [r0, #0]
100001fa:	2800      	cmp	r0, #0
100001fc:	d001      	beq.n	10000202 <hold_non_core0_in_bootrom+0x4>

100001fe <hold_non_core0_in_bootrom>:
100001fe:	4819      	ldr	r0, [pc, #100]	@ (10000264 <data_cpy_table+0x2c>)
10000200:	e7f3      	b.n	100001ea <_enter_vtable_in_r0>
10000202:	a40d      	add	r4, pc, #52	@ (adr r4, 10000238 <data_cpy_table>)
10000204:	cc0e      	ldmia	r4!, {r1, r2, r3}
10000206:	2900      	cmp	r1, #0
10000208:	d002      	beq.n	10000210 <hold_non_core0_in_bootrom+0x12>
1000020a:	f000 f812 	bl	10000232 <data_cpy>
1000020e:	e7f9      	b.n	10000204 <hold_non_core0_in_bootrom+0x6>
10000210:	4917      	ldr	r1, [pc, #92]	@ (10000270 <data_cpy_table+0x38>)
10000212:	4a18      	ldr	r2, [pc, #96]	@ (10000274 <data_cpy_table+0x3c>)
10000214:	2000      	movs	r0, #0
10000216:	e000      	b.n	1000021a <bss_fill_test>

10000218 <bss_fill_loop>:
10000218:	c101      	stmia	r1!, {r0}

1000021a <bss_fill_test>:
1000021a:	4291      	cmp	r1, r2
1000021c:	d1fc      	bne.n	10000218 <bss_fill_loop>

1000021e <platform_entry>:
1000021e:	4916      	ldr	r1, [pc, #88]	@ (10000278 <data_cpy_table+0x40>)
10000220:	4788      	blx	r1
10000222:	4916      	ldr	r1, [pc, #88]	@ (1000027c <data_cpy_table+0x44>)
10000224:	4788      	blx	r1
10000226:	4916      	ldr	r1, [pc, #88]	@ (10000280 <data_cpy_table+0x48>)
10000228:	4788      	blx	r1
1000022a:	be00      	bkpt	0x0000
1000022c:	e7fd      	b.n	1000022a <platform_entry+0xc>

1000022e <data_cpy_loop>:
1000022e:	c901      	ldmia	r1!, {r0}
10000230:	c201      	stmia	r2!, {r0}

10000232 <data_cpy>:
10000232:	429a      	cmp	r2, r3
10000234:	d3fb      	bcc.n	1000022e <data_cpy_loop>
10000236:	4770      	bx	lr

10000238 <data_cpy_table>:
10000238:	1000419c 	.word	0x1000419c
1000023c:	200000c0 	.word	0x200000c0
10000240:	200002c0 	.word	0x200002c0
10000244:	1000439c 	.word	0x1000439c
10000248:	20040000 	.word	0x20040000
1000024c:	20040000 	.word	0x20040000
10000250:	1000439c 	.word	0x1000439c
10000254:	20041000 	.word	0x20041000
10000258:	20041000 	.word	0x20041000
1000025c:	00000000 	.word	0x00000000
10000260:	4770      	bx	lr
10000262:	0000      	.short	0x0000
10000264:	00000000 	.word	0x00000000
10000268:	e000ed08 	.word	0xe000ed08
1000026c:	d0000000 	.word	0xd0000000
10000270:	200002c0 	.word	0x200002c0
10000274:	20000c54 	.word	0x20000c54
10000278:	10003525 	.word	0x10003525
1000027c:	10000fe9 	.word	0x10000fe9
10000280:	1000351d 	.word	0x1000351d

10000284 <_init>:
10000284:	b5f8      	push	{r3, r4, r5, r6, r7, lr}
10000286:	46c0      	nop			@ (mov r8, r8)

10000288 <register_tm_clones>:
10000288:	4806      	ldr	r0, [pc, #24]	@ (100002a4 <register_tm_clones+0x1c>)
1000028a:	4907      	ldr	r1, [pc, #28]	@ (100002a8 <register_tm_clones+0x20>)
1000028c:	1a09      	subs	r1, r1, r0
1000028e:	108b      	asrs	r3, r1, #2
10000290:	0fc9      	lsrs	r1, r1, #31
10000292:	18c9      	adds	r1, r1, r3
10000294:	b510      	push	{r4, lr}
10000296:	1049      	asrs	r1, r1, #1
10000298:	d003      	beq.n	100002a2 <register_tm_clones+0x1a>
1000029a:	4b04      	ldr	r3, [pc, #16]	@ (100002ac <register_tm_clones+0x24>)
1000029c:	2b00      	cmp	r3, #0
1000029e:	d000      	beq.n	100002a2 <register_tm_clones+0x1a>
100002a0:	4798      	blx	r3
100002a2:	bd10      	pop	{r4, pc}
100002a4:	200002c0 	.word	0x200002c0
100002a8:	200002c0 	.word	0x200002c0
100002ac:	00000000 	.word	0x00000000

100002b0 <frame_dummy>:
100002b0:	4b05      	ldr	r3, [pc, #20]	@ (100002c8 <frame_dummy+0x18>)
100002b2:	b510      	push	{r4, lr}
100002b4:	2b00      	cmp	r3, #0
100002b6:	d003      	beq.n	100002c0 <frame_dummy+0x10>
100002b8:	4904      	ldr	r1, [pc, #16]	@ (100002cc <frame_dummy+0x1c>)
100002ba:	4805      	ldr	r0, [pc, #20]	@ (100002d0 <frame_dummy+0x20>)
100002bc:	e000      	b.n	100002c0 <frame_dummy+0x10>
100002be:	bf00      	nop
100002c0:	f7ff ffe2 	bl	10000288 <register_tm_clones>
100002c4:	bd10      	pop	{r4, pc}
100002c6:	46c0      	nop			@ (mov r8, r8)
100002c8:	00000000 	.word	0x00000000
100002cc:	20000818 	.word	0x20000818
100002d0:	10003b50 	.word	0x10003b50

100002d4 <timer0_isr>:
100002d4:	b510      	push	{r4, lr}
100002d6:	4b07      	ldr	r3, [pc, #28]	@ (100002f4 <timer0_isr+0x20>)
100002d8:	781b      	ldrb	r3, [r3, #0]
100002da:	b25b      	sxtb	r3, r3
100002dc:	2b01      	cmp	r3, #1
100002de:	d001      	beq.n	100002e4 <timer0_isr+0x10>
100002e0:	2b00      	cmp	r3, #0
100002e2:	d101      	bne.n	100002e8 <timer0_isr+0x14>
100002e4:	4a04      	ldr	r2, [pc, #16]	@ (100002f8 <timer0_isr+0x24>)
100002e6:	7013      	strb	r3, [r2, #0]
100002e8:	4804      	ldr	r0, [pc, #16]	@ (100002fc <timer0_isr+0x28>)
100002ea:	f002 fb87 	bl	100029fc <cancel_repeating_timer>
100002ee:	2001      	movs	r0, #1
100002f0:	bd10      	pop	{r4, pc}
100002f2:	46c0      	nop			@ (mov r8, r8)
100002f4:	20000c47 	.word	0x20000c47
100002f8:	20000c3e 	.word	0x20000c3e
100002fc:	20000640 	.word	0x20000640

10000300 <timer1_isr>:
10000300:	b510      	push	{r4, lr}
10000302:	4b06      	ldr	r3, [pc, #24]	@ (1000031c <timer1_isr+0x1c>)
10000304:	781b      	ldrb	r3, [r3, #0]
10000306:	b25b      	sxtb	r3, r3
10000308:	2b01      	cmp	r3, #1
1000030a:	d101      	bne.n	10000310 <timer1_isr+0x10>
1000030c:	4a04      	ldr	r2, [pc, #16]	@ (10000320 <timer1_isr+0x20>)
1000030e:	7013      	strb	r3, [r2, #0]
10000310:	4804      	ldr	r0, [pc, #16]	@ (10000324 <timer1_isr+0x24>)
10000312:	f002 fb73 	bl	100029fc <cancel_repeating_timer>
10000316:	2001      	movs	r0, #1
10000318:	bd10      	pop	{r4, pc}
1000031a:	46c0      	nop			@ (mov r8, r8)
1000031c:	20000c42 	.word	0x20000c42
10000320:	20000c45 	.word	0x20000c45
10000324:	20000658 	.word	0x20000658

10000328 <delete_message_timer>:
10000328:	2201      	movs	r2, #1
1000032a:	b510      	push	{r4, lr}
1000032c:	2400      	movs	r4, #0
1000032e:	4b0c      	ldr	r3, [pc, #48]	@ (10000360 <delete_message_timer+0x38>)
10000330:	b084      	sub	sp, #16
10000332:	480c      	ldr	r0, [pc, #48]	@ (10000364 <delete_message_timer+0x3c>)
10000334:	701a      	strb	r2, [r3, #0]
10000336:	f000 ffb3 	bl	100012a0 <sendDataOverDebug>
1000033a:	4b0b      	ldr	r3, [pc, #44]	@ (10000368 <delete_message_timer+0x40>)
1000033c:	571c      	ldrsb	r4, [r3, r4]
1000033e:	2c00      	cmp	r4, #0
10000340:	d001      	beq.n	10000346 <delete_message_timer+0x1e>
10000342:	b004      	add	sp, #16
10000344:	bd10      	pop	{r4, pc}
10000346:	f002 f90d 	bl	10002564 <alarm_pool_get_default>
1000034a:	4b08      	ldr	r3, [pc, #32]	@ (1000036c <delete_message_timer+0x44>)
1000034c:	4a08      	ldr	r2, [pc, #32]	@ (10000370 <delete_message_timer+0x48>)
1000034e:	9302      	str	r3, [sp, #8]
10000350:	4b08      	ldr	r3, [pc, #32]	@ (10000374 <delete_message_timer+0x4c>)
10000352:	9401      	str	r4, [sp, #4]
10000354:	9300      	str	r3, [sp, #0]
10000356:	2300      	movs	r3, #0
10000358:	f002 fabc 	bl	100028d4 <alarm_pool_add_repeating_timer_us>
1000035c:	e7f1      	b.n	10000342 <delete_message_timer+0x1a>
1000035e:	46c0      	nop			@ (mov r8, r8)
10000360:	20000c47 	.word	0x20000c47
10000364:	10003b50 	.word	0x10003b50
10000368:	20000c3e 	.word	0x20000c3e
1000036c:	20000640 	.word	0x20000640
10000370:	00030d40 	.word	0x00030d40
10000374:	100002d5 	.word	0x100002d5

10000378 <set_location_frequency>:
10000378:	2201      	movs	r2, #1
1000037a:	b570      	push	{r4, r5, r6, lr}
1000037c:	4e12      	ldr	r6, [pc, #72]	@ (100003c8 <set_location_frequency+0x50>)
1000037e:	4b13      	ldr	r3, [pc, #76]	@ (100003cc <set_location_frequency+0x54>)
10000380:	b084      	sub	sp, #16
10000382:	0030      	movs	r0, r6
10000384:	701a      	strb	r2, [r3, #0]
10000386:	f002 fb39 	bl	100029fc <cancel_repeating_timer>
1000038a:	4811      	ldr	r0, [pc, #68]	@ (100003d0 <set_location_frequency+0x58>)
1000038c:	f000 ff88 	bl	100012a0 <sendDataOverDebug>
10000390:	4b10      	ldr	r3, [pc, #64]	@ (100003d4 <set_location_frequency+0x5c>)
10000392:	4c11      	ldr	r4, [pc, #68]	@ (100003d8 <set_location_frequency+0x60>)
10000394:	781b      	ldrb	r3, [r3, #0]
10000396:	b25b      	sxtb	r3, r3
10000398:	435c      	muls	r4, r3
1000039a:	f002 f8e3 	bl	10002564 <alarm_pool_get_default>
1000039e:	22fa      	movs	r2, #250	@ 0xfa
100003a0:	0005      	movs	r5, r0
100003a2:	2300      	movs	r3, #0
100003a4:	0020      	movs	r0, r4
100003a6:	17e1      	asrs	r1, r4, #31
100003a8:	0092      	lsls	r2, r2, #2
100003aa:	f003 f81f 	bl	100033ec <__wrap___aeabi_lmul>
100003ae:	000b      	movs	r3, r1
100003b0:	2100      	movs	r1, #0
100003b2:	9101      	str	r1, [sp, #4]
100003b4:	4909      	ldr	r1, [pc, #36]	@ (100003dc <set_location_frequency+0x64>)
100003b6:	0002      	movs	r2, r0
100003b8:	9602      	str	r6, [sp, #8]
100003ba:	0028      	movs	r0, r5
100003bc:	9100      	str	r1, [sp, #0]
100003be:	f002 fa89 	bl	100028d4 <alarm_pool_add_repeating_timer_us>
100003c2:	b004      	add	sp, #16
100003c4:	bd70      	pop	{r4, r5, r6, pc}
100003c6:	46c0      	nop			@ (mov r8, r8)
100003c8:	20000658 	.word	0x20000658
100003cc:	20000c42 	.word	0x20000c42
100003d0:	10003b50 	.word	0x10003b50
100003d4:	20000c43 	.word	0x20000c43
100003d8:	0000ea60 	.word	0x0000ea60
100003dc:	10000301 	.word	0x10000301

100003e0 <check_response_message>:
100003e0:	b5f8      	push	{r3, r4, r5, r6, r7, lr}
100003e2:	2502      	movs	r5, #2
100003e4:	4e2c      	ldr	r6, [pc, #176]	@ (10000498 <check_response_message+0xb8>)
100003e6:	4c2d      	ldr	r4, [pc, #180]	@ (1000049c <check_response_message+0xbc>)
100003e8:	4f2d      	ldr	r7, [pc, #180]	@ (100004a0 <check_response_message+0xc0>)
100003ea:	482e      	ldr	r0, [pc, #184]	@ (100004a4 <check_response_message+0xc4>)
100003ec:	f002 f9bc 	bl	10002768 <sleep_ms>
100003f0:	0031      	movs	r1, r6
100003f2:	0020      	movs	r0, r4
100003f4:	f001 f9a8 	bl	10001748 <strstr_mod>
100003f8:	2800      	cmp	r0, #0
100003fa:	d02b      	beq.n	10000454 <check_response_message+0x74>
100003fc:	0039      	movs	r1, r7
100003fe:	0020      	movs	r0, r4
10000400:	f001 f9a2 	bl	10001748 <strstr_mod>
10000404:	2800      	cmp	r0, #0
10000406:	d02e      	beq.n	10000466 <check_response_message+0x86>
10000408:	2d01      	cmp	r5, #1
1000040a:	d116      	bne.n	1000043a <check_response_message+0x5a>
1000040c:	4b26      	ldr	r3, [pc, #152]	@ (100004a8 <check_response_message+0xc8>)
1000040e:	7818      	ldrb	r0, [r3, #0]
10000410:	4b26      	ldr	r3, [pc, #152]	@ (100004ac <check_response_message+0xcc>)
10000412:	2200      	movs	r2, #0
10000414:	5e9b      	ldrsh	r3, [r3, r2]
10000416:	4283      	cmp	r3, r0
10000418:	d014      	beq.n	10000444 <check_response_message+0x64>
1000041a:	2120      	movs	r1, #32
1000041c:	4a24      	ldr	r2, [pc, #144]	@ (100004b0 <check_response_message+0xd0>)
1000041e:	6993      	ldr	r3, [r2, #24]
10000420:	4219      	tst	r1, r3
10000422:	d1fc      	bne.n	1000041e <check_response_message+0x3e>
10000424:	6010      	str	r0, [r2, #0]
10000426:	20fa      	movs	r0, #250	@ 0xfa
10000428:	0040      	lsls	r0, r0, #1
1000042a:	f002 f99d 	bl	10002768 <sleep_ms>
1000042e:	4b21      	ldr	r3, [pc, #132]	@ (100004b4 <check_response_message+0xd4>)
10000430:	7818      	ldrb	r0, [r3, #0]
10000432:	3001      	adds	r0, #1
10000434:	b2c0      	uxtb	r0, r0
10000436:	7018      	strb	r0, [r3, #0]
10000438:	bdf8      	pop	{r3, r4, r5, r6, r7, pc}
1000043a:	200c      	movs	r0, #12
1000043c:	f002 f994 	bl	10002768 <sleep_ms>
10000440:	2501      	movs	r5, #1
10000442:	e7d2      	b.n	100003ea <check_response_message+0xa>
10000444:	2120      	movs	r1, #32
10000446:	4a1a      	ldr	r2, [pc, #104]	@ (100004b0 <check_response_message+0xd0>)
10000448:	6993      	ldr	r3, [r2, #24]
1000044a:	4219      	tst	r1, r3
1000044c:	d1fc      	bne.n	10000448 <check_response_message+0x68>
1000044e:	230d      	movs	r3, #13
10000450:	6013      	str	r3, [r2, #0]
10000452:	e7e2      	b.n	1000041a <check_response_message+0x3a>
10000454:	4b17      	ldr	r3, [pc, #92]	@ (100004b4 <check_response_message+0xd4>)
10000456:	22c8      	movs	r2, #200	@ 0xc8
10000458:	7018      	strb	r0, [r3, #0]
1000045a:	2100      	movs	r1, #0
1000045c:	4816      	ldr	r0, [pc, #88]	@ (100004b8 <check_response_message+0xd8>)
1000045e:	f003 f82f 	bl	100034c0 <__wrap_memset>
10000462:	2000      	movs	r0, #0
10000464:	e7e8      	b.n	10000438 <check_response_message+0x58>
10000466:	4b10      	ldr	r3, [pc, #64]	@ (100004a8 <check_response_message+0xc8>)
10000468:	7818      	ldrb	r0, [r3, #0]
1000046a:	4b10      	ldr	r3, [pc, #64]	@ (100004ac <check_response_message+0xcc>)
1000046c:	2200      	movs	r2, #0
1000046e:	5e9b      	ldrsh	r3, [r3, r2]
10000470:	4283      	cmp	r3, r0
10000472:	d008      	beq.n	10000486 <check_response_message+0xa6>
10000474:	2120      	movs	r1, #32
10000476:	4a0e      	ldr	r2, [pc, #56]	@ (100004b0 <check_response_message+0xd0>)
10000478:	6993      	ldr	r3, [r2, #24]
1000047a:	4219      	tst	r1, r3
1000047c:	d1fc      	bne.n	10000478 <check_response_message+0x98>
1000047e:	6010      	str	r0, [r2, #0]
10000480:	f000 fdda 	bl	10001038 <clear_buffer>
10000484:	e7d3      	b.n	1000042e <check_response_message+0x4e>
10000486:	2120      	movs	r1, #32
10000488:	4a09      	ldr	r2, [pc, #36]	@ (100004b0 <check_response_message+0xd0>)
1000048a:	6993      	ldr	r3, [r2, #24]
1000048c:	4219      	tst	r1, r3
1000048e:	d1fc      	bne.n	1000048a <check_response_message+0xaa>
10000490:	230d      	movs	r3, #13
10000492:	6013      	str	r3, [r2, #0]
10000494:	e7ee      	b.n	10000474 <check_response_message+0x94>
10000496:	46c0      	nop			@ (mov r8, r8)
10000498:	10003b5c 	.word	0x10003b5c
1000049c:	20000840 	.word	0x20000840
100004a0:	10003b60 	.word	0x10003b60
100004a4:	00001388 	.word	0x00001388
100004a8:	2000019d 	.word	0x2000019d
100004ac:	20000c30 	.word	0x20000c30
100004b0:	40034000 	.word	0x40034000
100004b4:	20000c40 	.word	0x20000c40
100004b8:	20000744 	.word	0x20000744

100004bc <response_back>:
100004bc:	b5f0      	push	{r4, r5, r6, r7, lr}
100004be:	4657      	mov	r7, sl
100004c0:	464e      	mov	r6, r9
100004c2:	4645      	mov	r5, r8
100004c4:	46de      	mov	lr, fp
100004c6:	2301      	movs	r3, #1
100004c8:	b5e0      	push	{r5, r6, r7, lr}
100004ca:	4682      	mov	sl, r0
100004cc:	4688      	mov	r8, r1
100004ce:	2520      	movs	r5, #32
100004d0:	4f3e      	ldr	r7, [pc, #248]	@ (100005cc <response_back+0x110>)
100004d2:	b087      	sub	sp, #28
100004d4:	703b      	strb	r3, [r7, #0]
100004d6:	4b3e      	ldr	r3, [pc, #248]	@ (100005d0 <response_back+0x114>)
100004d8:	4e3e      	ldr	r6, [pc, #248]	@ (100005d4 <response_back+0x118>)
100004da:	469b      	mov	fp, r3
100004dc:	4b3e      	ldr	r3, [pc, #248]	@ (100005d8 <response_back+0x11c>)
100004de:	4c3f      	ldr	r4, [pc, #252]	@ (100005dc <response_back+0x120>)
100004e0:	4699      	mov	r9, r3
100004e2:	4b3f      	ldr	r3, [pc, #252]	@ (100005e0 <response_back+0x124>)
100004e4:	9301      	str	r3, [sp, #4]
100004e6:	4b3f      	ldr	r3, [pc, #252]	@ (100005e4 <response_back+0x128>)
100004e8:	9302      	str	r3, [sp, #8]
100004ea:	4b3f      	ldr	r3, [pc, #252]	@ (100005e8 <response_back+0x12c>)
100004ec:	9303      	str	r3, [sp, #12]
100004ee:	4b3f      	ldr	r3, [pc, #252]	@ (100005ec <response_back+0x130>)
100004f0:	9305      	str	r3, [sp, #20]
100004f2:	4b3f      	ldr	r3, [pc, #252]	@ (100005f0 <response_back+0x134>)
100004f4:	9304      	str	r3, [sp, #16]
100004f6:	22c8      	movs	r2, #200	@ 0xc8
100004f8:	2100      	movs	r1, #0
100004fa:	0030      	movs	r0, r6
100004fc:	f002 ffe0 	bl	100034c0 <__wrap_memset>
10000500:	f000 fd9a 	bl	10001038 <clear_buffer>
10000504:	2064      	movs	r0, #100	@ 0x64
10000506:	f002 f92f 	bl	10002768 <sleep_ms>
1000050a:	465b      	mov	r3, fp
1000050c:	4651      	mov	r1, sl
1000050e:	6818      	ldr	r0, [r3, #0]
10000510:	f001 f882 	bl	10001618 <join_strings>
10000514:	4648      	mov	r0, r9
10000516:	f000 fec3 	bl	100012a0 <sendDataOverDebug>
1000051a:	0030      	movs	r0, r6
1000051c:	f000 fec0 	bl	100012a0 <sendDataOverDebug>
10000520:	9901      	ldr	r1, [sp, #4]
10000522:	9802      	ldr	r0, [sp, #8]
10000524:	f001 f878 	bl	10001618 <join_strings>
10000528:	2064      	movs	r0, #100	@ 0x64
1000052a:	f002 f91d 	bl	10002768 <sleep_ms>
1000052e:	0030      	movs	r0, r6
10000530:	f000 fe82 	bl	10001238 <sendDataOverUART>
10000534:	2064      	movs	r0, #100	@ 0x64
10000536:	f002 f917 	bl	10002768 <sleep_ms>
1000053a:	4648      	mov	r0, r9
1000053c:	f000 feb0 	bl	100012a0 <sendDataOverDebug>
10000540:	2064      	movs	r0, #100	@ 0x64
10000542:	f002 f911 	bl	10002768 <sleep_ms>
10000546:	0030      	movs	r0, r6
10000548:	f000 feaa 	bl	100012a0 <sendDataOverDebug>
1000054c:	2064      	movs	r0, #100	@ 0x64
1000054e:	f002 f90b 	bl	10002768 <sleep_ms>
10000552:	4640      	mov	r0, r8
10000554:	f000 fea4 	bl	100012a0 <sendDataOverDebug>
10000558:	2064      	movs	r0, #100	@ 0x64
1000055a:	f002 f905 	bl	10002768 <sleep_ms>
1000055e:	4640      	mov	r0, r8
10000560:	f000 fe6a 	bl	10001238 <sendDataOverUART>
10000564:	20c8      	movs	r0, #200	@ 0xc8
10000566:	f002 f8ff 	bl	10002768 <sleep_ms>
1000056a:	9b03      	ldr	r3, [sp, #12]
1000056c:	781a      	ldrb	r2, [r3, #0]
1000056e:	69a3      	ldr	r3, [r4, #24]
10000570:	421d      	tst	r5, r3
10000572:	d1fc      	bne.n	1000056e <response_back+0xb2>
10000574:	2032      	movs	r0, #50	@ 0x32
10000576:	6022      	str	r2, [r4, #0]
10000578:	f002 f8f6 	bl	10002768 <sleep_ms>
1000057c:	f7ff ff30 	bl	100003e0 <check_response_message>
10000580:	783b      	ldrb	r3, [r7, #0]
10000582:	2b05      	cmp	r3, #5
10000584:	d81b      	bhi.n	100005be <response_back+0x102>
10000586:	2232      	movs	r2, #50	@ 0x32
10000588:	2100      	movs	r1, #0
1000058a:	9805      	ldr	r0, [sp, #20]
1000058c:	f002 ff98 	bl	100034c0 <__wrap_memset>
10000590:	2032      	movs	r0, #50	@ 0x32
10000592:	f002 f8e9 	bl	10002768 <sleep_ms>
10000596:	22c8      	movs	r2, #200	@ 0xc8
10000598:	2100      	movs	r1, #0
1000059a:	0030      	movs	r0, r6
1000059c:	f002 ff90 	bl	100034c0 <__wrap_memset>
100005a0:	f000 fd4a 	bl	10001038 <clear_buffer>
100005a4:	9804      	ldr	r0, [sp, #16]
100005a6:	f000 fe7b 	bl	100012a0 <sendDataOverDebug>
100005aa:	783b      	ldrb	r3, [r7, #0]
100005ac:	2b00      	cmp	r3, #0
100005ae:	d1a2      	bne.n	100004f6 <response_back+0x3a>
100005b0:	b007      	add	sp, #28
100005b2:	bcf0      	pop	{r4, r5, r6, r7}
100005b4:	46bb      	mov	fp, r7
100005b6:	46b2      	mov	sl, r6
100005b8:	46a9      	mov	r9, r5
100005ba:	46a0      	mov	r8, r4
100005bc:	bdf0      	pop	{r4, r5, r6, r7, pc}
100005be:	2001      	movs	r0, #1
100005c0:	f000 fab6 	bl	10000b30 <reset_module>
100005c4:	2301      	movs	r3, #1
100005c6:	703b      	strb	r3, [r7, #0]
100005c8:	e7dd      	b.n	10000586 <response_back+0xca>
100005ca:	46c0      	nop			@ (mov r8, r8)
100005cc:	20000c40 	.word	0x20000c40
100005d0:	200001a4 	.word	0x200001a4
100005d4:	20000744 	.word	0x20000744
100005d8:	10003d78 	.word	0x10003d78
100005dc:	40034000 	.word	0x40034000
100005e0:	10003b68 	.word	0x10003b68
100005e4:	10003d5c 	.word	0x10003d5c
100005e8:	2000019c 	.word	0x2000019c
100005ec:	200006c8 	.word	0x200006c8
100005f0:	20000840 	.word	0x20000840

100005f4 <get_user_info>:
100005f4:	b510      	push	{r4, lr}
100005f6:	4b05      	ldr	r3, [pc, #20]	@ (1000060c <get_user_info+0x18>)
100005f8:	781b      	ldrb	r3, [r3, #0]
100005fa:	2b00      	cmp	r3, #0
100005fc:	d000      	beq.n	10000600 <get_user_info+0xc>
100005fe:	bd10      	pop	{r4, pc}
10000600:	4903      	ldr	r1, [pc, #12]	@ (10000610 <get_user_info+0x1c>)
10000602:	4804      	ldr	r0, [pc, #16]	@ (10000614 <get_user_info+0x20>)
10000604:	f7ff ff5a 	bl	100004bc <response_back>
10000608:	e7f9      	b.n	100005fe <get_user_info+0xa>
1000060a:	46c0      	nop			@ (mov r8, r8)
1000060c:	20000c40 	.word	0x20000c40
10000610:	10003b6c 	.word	0x10003b6c
10000614:	200001a8 	.word	0x200001a8

10000618 <perform_functionality>:
10000618:	b5f0      	push	{r4, r5, r6, r7, lr}
1000061a:	4daa      	ldr	r5, [pc, #680]	@ (100008c4 <perform_functionality+0x2ac>)
1000061c:	4caa      	ldr	r4, [pc, #680]	@ (100008c8 <perform_functionality+0x2b0>)
1000061e:	b0b3      	sub	sp, #204	@ 0xcc
10000620:	0029      	movs	r1, r5
10000622:	0020      	movs	r0, r4
10000624:	f001 f860 	bl	100016e8 <strcmp_mod>
10000628:	2800      	cmp	r0, #0
1000062a:	d163      	bne.n	100006f4 <perform_functionality+0xdc>
1000062c:	4da7      	ldr	r5, [pc, #668]	@ (100008cc <perform_functionality+0x2b4>)
1000062e:	782b      	ldrb	r3, [r5, #0]
10000630:	2b00      	cmp	r3, #0
10000632:	d00d      	beq.n	10000650 <perform_functionality+0x38>
10000634:	2b01      	cmp	r3, #1
10000636:	d03e      	beq.n	100006b6 <perform_functionality+0x9e>
10000638:	2232      	movs	r2, #50	@ 0x32
1000063a:	2100      	movs	r1, #0
1000063c:	0020      	movs	r0, r4
1000063e:	f002 ff3f 	bl	100034c0 <__wrap_memset>
10000642:	220e      	movs	r2, #14
10000644:	2100      	movs	r1, #0
10000646:	48a2      	ldr	r0, [pc, #648]	@ (100008d0 <perform_functionality+0x2b8>)
10000648:	f002 ff3a 	bl	100034c0 <__wrap_memset>
1000064c:	b033      	add	sp, #204	@ 0xcc
1000064e:	bdf0      	pop	{r4, r5, r6, r7, pc}
10000650:	3064      	adds	r0, #100	@ 0x64
10000652:	f002 f889 	bl	10002768 <sleep_ms>
10000656:	2232      	movs	r2, #50	@ 0x32
10000658:	2100      	movs	r1, #0
1000065a:	0020      	movs	r0, r4
1000065c:	f002 ff30 	bl	100034c0 <__wrap_memset>
10000660:	f000 fef2 	bl	10001448 <turnLEDon>
10000664:	782b      	ldrb	r3, [r5, #0]
10000666:	2b01      	cmp	r3, #1
10000668:	d1e6      	bne.n	10000638 <perform_functionality+0x20>
1000066a:	4f9a      	ldr	r7, [pc, #616]	@ (100008d4 <perform_functionality+0x2bc>)
1000066c:	0021      	movs	r1, r4
1000066e:	4898      	ldr	r0, [pc, #608]	@ (100008d0 <perform_functionality+0x2b8>)
10000670:	f000 ffd2 	bl	10001618 <join_strings>
10000674:	4e98      	ldr	r6, [pc, #608]	@ (100008d8 <perform_functionality+0x2c0>)
10000676:	4668      	mov	r0, sp
10000678:	0031      	movs	r1, r6
1000067a:	f001 f827 	bl	100016cc <strcpy_mod>
1000067e:	2000      	movs	r0, #0
10000680:	f002 f872 	bl	10002768 <sleep_ms>
10000684:	2100      	movs	r1, #0
10000686:	22c8      	movs	r2, #200	@ 0xc8
10000688:	0030      	movs	r0, r6
1000068a:	f002 ff19 	bl	100034c0 <__wrap_memset>
1000068e:	4669      	mov	r1, sp
10000690:	0038      	movs	r0, r7
10000692:	e027      	b.n	100006e4 <perform_functionality+0xcc>
10000694:	0029      	movs	r1, r5
10000696:	0020      	movs	r0, r4
10000698:	3118      	adds	r1, #24
1000069a:	f001 f825 	bl	100016e8 <strcmp_mod>
1000069e:	2800      	cmp	r0, #0
100006a0:	d152      	bne.n	10000748 <perform_functionality+0x130>
100006a2:	4d8a      	ldr	r5, [pc, #552]	@ (100008cc <perform_functionality+0x2b4>)
100006a4:	4b8d      	ldr	r3, [pc, #564]	@ (100008dc <perform_functionality+0x2c4>)
100006a6:	782a      	ldrb	r2, [r5, #0]
100006a8:	781b      	ldrb	r3, [r3, #0]
100006aa:	2a00      	cmp	r2, #0
100006ac:	d03d      	beq.n	1000072a <perform_functionality+0x112>
100006ae:	2b00      	cmp	r3, #0
100006b0:	d040      	beq.n	10000734 <perform_functionality+0x11c>
100006b2:	2a01      	cmp	r2, #1
100006b4:	d1c0      	bne.n	10000638 <perform_functionality+0x20>
100006b6:	498a      	ldr	r1, [pc, #552]	@ (100008e0 <perform_functionality+0x2c8>)
100006b8:	488a      	ldr	r0, [pc, #552]	@ (100008e4 <perform_functionality+0x2cc>)
100006ba:	f000 ffad 	bl	10001618 <join_strings>
100006be:	0021      	movs	r1, r4
100006c0:	4883      	ldr	r0, [pc, #524]	@ (100008d0 <perform_functionality+0x2b8>)
100006c2:	f000 ffa9 	bl	10001618 <join_strings>
100006c6:	4e84      	ldr	r6, [pc, #528]	@ (100008d8 <perform_functionality+0x2c0>)
100006c8:	4668      	mov	r0, sp
100006ca:	0031      	movs	r1, r6
100006cc:	f000 fffe 	bl	100016cc <strcpy_mod>
100006d0:	2000      	movs	r0, #0
100006d2:	f002 f849 	bl	10002768 <sleep_ms>
100006d6:	2100      	movs	r1, #0
100006d8:	22c8      	movs	r2, #200	@ 0xc8
100006da:	0030      	movs	r0, r6
100006dc:	f002 fef0 	bl	100034c0 <__wrap_memset>
100006e0:	4669      	mov	r1, sp
100006e2:	487c      	ldr	r0, [pc, #496]	@ (100008d4 <perform_functionality+0x2bc>)
100006e4:	f7ff feea 	bl	100004bc <response_back>
100006e8:	2300      	movs	r3, #0
100006ea:	2000      	movs	r0, #0
100006ec:	702b      	strb	r3, [r5, #0]
100006ee:	f002 f83b 	bl	10002768 <sleep_ms>
100006f2:	e7a1      	b.n	10000638 <perform_functionality+0x20>
100006f4:	0029      	movs	r1, r5
100006f6:	0020      	movs	r0, r4
100006f8:	310c      	adds	r1, #12
100006fa:	f000 fff5 	bl	100016e8 <strcmp_mod>
100006fe:	2800      	cmp	r0, #0
10000700:	d1c8      	bne.n	10000694 <perform_functionality+0x7c>
10000702:	4d72      	ldr	r5, [pc, #456]	@ (100008cc <perform_functionality+0x2b4>)
10000704:	782b      	ldrb	r3, [r5, #0]
10000706:	2b00      	cmp	r3, #0
10000708:	d000      	beq.n	1000070c <perform_functionality+0xf4>
1000070a:	e793      	b.n	10000634 <perform_functionality+0x1c>
1000070c:	2064      	movs	r0, #100	@ 0x64
1000070e:	f002 f82b 	bl	10002768 <sleep_ms>
10000712:	2232      	movs	r2, #50	@ 0x32
10000714:	2100      	movs	r1, #0
10000716:	0020      	movs	r0, r4
10000718:	f002 fed2 	bl	100034c0 <__wrap_memset>
1000071c:	f000 fe9e 	bl	1000145c <turnLEDoff>
10000720:	782b      	ldrb	r3, [r5, #0]
10000722:	2b01      	cmp	r3, #1
10000724:	d000      	beq.n	10000728 <perform_functionality+0x110>
10000726:	e787      	b.n	10000638 <perform_functionality+0x20>
10000728:	e79f      	b.n	1000066a <perform_functionality+0x52>
1000072a:	2b01      	cmp	r3, #1
1000072c:	d03a      	beq.n	100007a4 <perform_functionality+0x18c>
1000072e:	2b00      	cmp	r3, #0
10000730:	d000      	beq.n	10000734 <perform_functionality+0x11c>
10000732:	e781      	b.n	10000638 <perform_functionality+0x20>
10000734:	496c      	ldr	r1, [pc, #432]	@ (100008e8 <perform_functionality+0x2d0>)
10000736:	4f67      	ldr	r7, [pc, #412]	@ (100008d4 <perform_functionality+0x2bc>)
10000738:	0038      	movs	r0, r7
1000073a:	f7ff febf 	bl	100004bc <response_back>
1000073e:	782b      	ldrb	r3, [r5, #0]
10000740:	2b01      	cmp	r3, #1
10000742:	d000      	beq.n	10000746 <perform_functionality+0x12e>
10000744:	e778      	b.n	10000638 <perform_functionality+0x20>
10000746:	e791      	b.n	1000066c <perform_functionality+0x54>
10000748:	0029      	movs	r1, r5
1000074a:	0020      	movs	r0, r4
1000074c:	3120      	adds	r1, #32
1000074e:	f000 ffcb 	bl	100016e8 <strcmp_mod>
10000752:	2800      	cmp	r0, #0
10000754:	d113      	bne.n	1000077e <perform_functionality+0x166>
10000756:	4d5d      	ldr	r5, [pc, #372]	@ (100008cc <perform_functionality+0x2b4>)
10000758:	4b60      	ldr	r3, [pc, #384]	@ (100008dc <perform_functionality+0x2c4>)
1000075a:	782a      	ldrb	r2, [r5, #0]
1000075c:	781b      	ldrb	r3, [r3, #0]
1000075e:	2a00      	cmp	r2, #0
10000760:	d1a5      	bne.n	100006ae <perform_functionality+0x96>
10000762:	2b01      	cmp	r3, #1
10000764:	d1e3      	bne.n	1000072e <perform_functionality+0x116>
10000766:	4a61      	ldr	r2, [pc, #388]	@ (100008ec <perform_functionality+0x2d4>)
10000768:	7013      	strb	r3, [r2, #0]
1000076a:	f7ff fe05 	bl	10000378 <set_location_frequency>
1000076e:	2000      	movs	r0, #0
10000770:	f001 fffa 	bl	10002768 <sleep_ms>
10000774:	782b      	ldrb	r3, [r5, #0]
10000776:	2b01      	cmp	r3, #1
10000778:	d000      	beq.n	1000077c <perform_functionality+0x164>
1000077a:	e75d      	b.n	10000638 <perform_functionality+0x20>
1000077c:	e775      	b.n	1000066a <perform_functionality+0x52>
1000077e:	0029      	movs	r1, r5
10000780:	0020      	movs	r0, r4
10000782:	3130      	adds	r1, #48	@ 0x30
10000784:	f000 ffb0 	bl	100016e8 <strcmp_mod>
10000788:	2800      	cmp	r0, #0
1000078a:	d115      	bne.n	100007b8 <perform_functionality+0x1a0>
1000078c:	4d4f      	ldr	r5, [pc, #316]	@ (100008cc <perform_functionality+0x2b4>)
1000078e:	4b53      	ldr	r3, [pc, #332]	@ (100008dc <perform_functionality+0x2c4>)
10000790:	782a      	ldrb	r2, [r5, #0]
10000792:	781b      	ldrb	r3, [r3, #0]
10000794:	2a00      	cmp	r2, #0
10000796:	d18a      	bne.n	100006ae <perform_functionality+0x96>
10000798:	2b01      	cmp	r3, #1
1000079a:	d1c8      	bne.n	1000072e <perform_functionality+0x116>
1000079c:	4b53      	ldr	r3, [pc, #332]	@ (100008ec <perform_functionality+0x2d4>)
1000079e:	3203      	adds	r2, #3
100007a0:	701a      	strb	r2, [r3, #0]
100007a2:	e7e2      	b.n	1000076a <perform_functionality+0x152>
100007a4:	f001 fa4c 	bl	10001c40 <send_location>
100007a8:	2000      	movs	r0, #0
100007aa:	f001 ffdd 	bl	10002768 <sleep_ms>
100007ae:	782b      	ldrb	r3, [r5, #0]
100007b0:	2b01      	cmp	r3, #1
100007b2:	d000      	beq.n	100007b6 <perform_functionality+0x19e>
100007b4:	e740      	b.n	10000638 <perform_functionality+0x20>
100007b6:	e758      	b.n	1000066a <perform_functionality+0x52>
100007b8:	0029      	movs	r1, r5
100007ba:	0020      	movs	r0, r4
100007bc:	3140      	adds	r1, #64	@ 0x40
100007be:	f000 ff93 	bl	100016e8 <strcmp_mod>
100007c2:	2800      	cmp	r0, #0
100007c4:	d10c      	bne.n	100007e0 <perform_functionality+0x1c8>
100007c6:	4d41      	ldr	r5, [pc, #260]	@ (100008cc <perform_functionality+0x2b4>)
100007c8:	4b44      	ldr	r3, [pc, #272]	@ (100008dc <perform_functionality+0x2c4>)
100007ca:	782a      	ldrb	r2, [r5, #0]
100007cc:	781b      	ldrb	r3, [r3, #0]
100007ce:	2a00      	cmp	r2, #0
100007d0:	d000      	beq.n	100007d4 <perform_functionality+0x1bc>
100007d2:	e76c      	b.n	100006ae <perform_functionality+0x96>
100007d4:	2b01      	cmp	r3, #1
100007d6:	d1aa      	bne.n	1000072e <perform_functionality+0x116>
100007d8:	4b44      	ldr	r3, [pc, #272]	@ (100008ec <perform_functionality+0x2d4>)
100007da:	3205      	adds	r2, #5
100007dc:	701a      	strb	r2, [r3, #0]
100007de:	e7c4      	b.n	1000076a <perform_functionality+0x152>
100007e0:	0029      	movs	r1, r5
100007e2:	0020      	movs	r0, r4
100007e4:	3150      	adds	r1, #80	@ 0x50
100007e6:	f000 ff7f 	bl	100016e8 <strcmp_mod>
100007ea:	2800      	cmp	r0, #0
100007ec:	d114      	bne.n	10000818 <perform_functionality+0x200>
100007ee:	4d37      	ldr	r5, [pc, #220]	@ (100008cc <perform_functionality+0x2b4>)
100007f0:	4b3a      	ldr	r3, [pc, #232]	@ (100008dc <perform_functionality+0x2c4>)
100007f2:	782e      	ldrb	r6, [r5, #0]
100007f4:	781b      	ldrb	r3, [r3, #0]
100007f6:	2e00      	cmp	r6, #0
100007f8:	d123      	bne.n	10000842 <perform_functionality+0x22a>
100007fa:	2b01      	cmp	r3, #1
100007fc:	d197      	bne.n	1000072e <perform_functionality+0x116>
100007fe:	2207      	movs	r2, #7
10000800:	4b3a      	ldr	r3, [pc, #232]	@ (100008ec <perform_functionality+0x2d4>)
10000802:	701a      	strb	r2, [r3, #0]
10000804:	f7ff fdb8 	bl	10000378 <set_location_frequency>
10000808:	0030      	movs	r0, r6
1000080a:	f001 ffad 	bl	10002768 <sleep_ms>
1000080e:	782b      	ldrb	r3, [r5, #0]
10000810:	2b01      	cmp	r3, #1
10000812:	d000      	beq.n	10000816 <perform_functionality+0x1fe>
10000814:	e710      	b.n	10000638 <perform_functionality+0x20>
10000816:	e728      	b.n	1000066a <perform_functionality+0x52>
10000818:	0029      	movs	r1, r5
1000081a:	0020      	movs	r0, r4
1000081c:	3160      	adds	r1, #96	@ 0x60
1000081e:	f000 ff63 	bl	100016e8 <strcmp_mod>
10000822:	2800      	cmp	r0, #0
10000824:	d114      	bne.n	10000850 <perform_functionality+0x238>
10000826:	4d29      	ldr	r5, [pc, #164]	@ (100008cc <perform_functionality+0x2b4>)
10000828:	4b2c      	ldr	r3, [pc, #176]	@ (100008dc <perform_functionality+0x2c4>)
1000082a:	782a      	ldrb	r2, [r5, #0]
1000082c:	781b      	ldrb	r3, [r3, #0]
1000082e:	2a00      	cmp	r2, #0
10000830:	d000      	beq.n	10000834 <perform_functionality+0x21c>
10000832:	e73c      	b.n	100006ae <perform_functionality+0x96>
10000834:	2b01      	cmp	r3, #1
10000836:	d000      	beq.n	1000083a <perform_functionality+0x222>
10000838:	e779      	b.n	1000072e <perform_functionality+0x116>
1000083a:	4b2c      	ldr	r3, [pc, #176]	@ (100008ec <perform_functionality+0x2d4>)
1000083c:	320a      	adds	r2, #10
1000083e:	701a      	strb	r2, [r3, #0]
10000840:	e793      	b.n	1000076a <perform_functionality+0x152>
10000842:	2b00      	cmp	r3, #0
10000844:	d100      	bne.n	10000848 <perform_functionality+0x230>
10000846:	e775      	b.n	10000734 <perform_functionality+0x11c>
10000848:	2e01      	cmp	r6, #1
1000084a:	d100      	bne.n	1000084e <perform_functionality+0x236>
1000084c:	e733      	b.n	100006b6 <perform_functionality+0x9e>
1000084e:	e6f3      	b.n	10000638 <perform_functionality+0x20>
10000850:	0029      	movs	r1, r5
10000852:	0020      	movs	r0, r4
10000854:	3170      	adds	r1, #112	@ 0x70
10000856:	f000 ff47 	bl	100016e8 <strcmp_mod>
1000085a:	4d1c      	ldr	r5, [pc, #112]	@ (100008cc <perform_functionality+0x2b4>)
1000085c:	2800      	cmp	r0, #0
1000085e:	d117      	bne.n	10000890 <perform_functionality+0x278>
10000860:	4b1e      	ldr	r3, [pc, #120]	@ (100008dc <perform_functionality+0x2c4>)
10000862:	782a      	ldrb	r2, [r5, #0]
10000864:	781b      	ldrb	r3, [r3, #0]
10000866:	2a00      	cmp	r2, #0
10000868:	d000      	beq.n	1000086c <perform_functionality+0x254>
1000086a:	e720      	b.n	100006ae <perform_functionality+0x96>
1000086c:	2b01      	cmp	r3, #1
1000086e:	d000      	beq.n	10000872 <perform_functionality+0x25a>
10000870:	e75d      	b.n	1000072e <perform_functionality+0x116>
10000872:	2600      	movs	r6, #0
10000874:	4b1e      	ldr	r3, [pc, #120]	@ (100008f0 <perform_functionality+0x2d8>)
10000876:	481f      	ldr	r0, [pc, #124]	@ (100008f4 <perform_functionality+0x2dc>)
10000878:	701e      	strb	r6, [r3, #0]
1000087a:	4b1f      	ldr	r3, [pc, #124]	@ (100008f8 <perform_functionality+0x2e0>)
1000087c:	701e      	strb	r6, [r3, #0]
1000087e:	4b1b      	ldr	r3, [pc, #108]	@ (100008ec <perform_functionality+0x2d4>)
10000880:	701e      	strb	r6, [r3, #0]
10000882:	f002 f8bb 	bl	100029fc <cancel_repeating_timer>
10000886:	0030      	movs	r0, r6
10000888:	f001 ff6e 	bl	10002768 <sleep_ms>
1000088c:	491b      	ldr	r1, [pc, #108]	@ (100008fc <perform_functionality+0x2e4>)
1000088e:	e752      	b.n	10000736 <perform_functionality+0x11e>
10000890:	782b      	ldrb	r3, [r5, #0]
10000892:	2b00      	cmp	r3, #0
10000894:	d003      	beq.n	1000089e <perform_functionality+0x286>
10000896:	2b01      	cmp	r3, #1
10000898:	d000      	beq.n	1000089c <perform_functionality+0x284>
1000089a:	e6cd      	b.n	10000638 <perform_functionality+0x20>
1000089c:	e6e5      	b.n	1000066a <perform_functionality+0x52>
1000089e:	4f0d      	ldr	r7, [pc, #52]	@ (100008d4 <perform_functionality+0x2bc>)
100008a0:	4917      	ldr	r1, [pc, #92]	@ (10000900 <perform_functionality+0x2e8>)
100008a2:	0038      	movs	r0, r7
100008a4:	f7ff fe0a 	bl	100004bc <response_back>
100008a8:	2000      	movs	r0, #0
100008aa:	f001 ff5d 	bl	10002768 <sleep_ms>
100008ae:	2232      	movs	r2, #50	@ 0x32
100008b0:	2100      	movs	r1, #0
100008b2:	0020      	movs	r0, r4
100008b4:	f002 fe04 	bl	100034c0 <__wrap_memset>
100008b8:	782b      	ldrb	r3, [r5, #0]
100008ba:	2b01      	cmp	r3, #1
100008bc:	d000      	beq.n	100008c0 <perform_functionality+0x2a8>
100008be:	e6bb      	b.n	10000638 <perform_functionality+0x20>
100008c0:	e6d4      	b.n	1000066c <perform_functionality+0x54>
100008c2:	46c0      	nop			@ (mov r8, r8)
100008c4:	10004064 	.word	0x10004064
100008c8:	200006fc 	.word	0x200006fc
100008cc:	20000c41 	.word	0x20000c41
100008d0:	20000730 	.word	0x20000730
100008d4:	200001a8 	.word	0x200001a8
100008d8:	20000744 	.word	0x20000744
100008dc:	20000c4d 	.word	0x20000c4d
100008e0:	10003d78 	.word	0x10003d78
100008e4:	10003ba0 	.word	0x10003ba0
100008e8:	10003bbc 	.word	0x10003bbc
100008ec:	20000c43 	.word	0x20000c43
100008f0:	20000c45 	.word	0x20000c45
100008f4:	20000658 	.word	0x20000658
100008f8:	20000c42 	.word	0x20000c42
100008fc:	10003bf8 	.word	0x10003bf8
10000900:	10003c10 	.word	0x10003c10

10000904 <extract_user_info>:
10000904:	b5f0      	push	{r4, r5, r6, r7, lr}
10000906:	46c6      	mov	lr, r8
10000908:	b500      	push	{lr}
1000090a:	4d7d      	ldr	r5, [pc, #500]	@ (10000b00 <extract_user_info+0x1fc>)
1000090c:	b0b2      	sub	sp, #200	@ 0xc8
1000090e:	0028      	movs	r0, r5
10000910:	f000 fed0 	bl	100016b4 <strlen_mod>
10000914:	4e7b      	ldr	r6, [pc, #492]	@ (10000b04 <extract_user_info+0x200>)
10000916:	0004      	movs	r4, r0
10000918:	220e      	movs	r2, #14
1000091a:	2100      	movs	r1, #0
1000091c:	0030      	movs	r0, r6
1000091e:	f002 fdcf 	bl	100034c0 <__wrap_memset>
10000922:	2c0d      	cmp	r4, #13
10000924:	d969      	bls.n	100009fa <extract_user_info+0xf6>
10000926:	0028      	movs	r0, r5
10000928:	4977      	ldr	r1, [pc, #476]	@ (10000b08 <extract_user_info+0x204>)
1000092a:	f000 ff0d 	bl	10001748 <strstr_mod>
1000092e:	2800      	cmp	r0, #0
10000930:	d163      	bne.n	100009fa <extract_user_info+0xf6>
10000932:	2300      	movs	r3, #0
10000934:	4f75      	ldr	r7, [pc, #468]	@ (10000b0c <extract_user_info+0x208>)
10000936:	e003      	b.n	10000940 <extract_user_info+0x3c>
10000938:	54fa      	strb	r2, [r7, r3]
1000093a:	42a3      	cmp	r3, r4
1000093c:	d100      	bne.n	10000940 <extract_user_info+0x3c>
1000093e:	e077      	b.n	10000a30 <extract_user_info+0x12c>
10000940:	56ea      	ldrsb	r2, [r5, r3]
10000942:	0019      	movs	r1, r3
10000944:	3301      	adds	r3, #1
10000946:	2a20      	cmp	r2, #32
10000948:	d1f6      	bne.n	10000938 <extract_user_info+0x34>
1000094a:	2000      	movs	r0, #0
1000094c:	4a70      	ldr	r2, [pc, #448]	@ (10000b10 <extract_user_info+0x20c>)
1000094e:	5450      	strb	r0, [r2, r1]
10000950:	429c      	cmp	r4, r3
10000952:	d04d      	beq.n	100009f0 <extract_user_info+0xec>
10000954:	1a60      	subs	r0, r4, r1
10000956:	1e82      	subs	r2, r0, #2
10000958:	2a05      	cmp	r2, #5
1000095a:	d900      	bls.n	1000095e <extract_user_info+0x5a>
1000095c:	e06d      	b.n	10000a3a <extract_user_info+0x136>
1000095e:	5ceb      	ldrb	r3, [r5, r3]
10000960:	1c8a      	adds	r2, r1, #2
10000962:	7033      	strb	r3, [r6, #0]
10000964:	42a2      	cmp	r2, r4
10000966:	d043      	beq.n	100009f0 <extract_user_info+0xec>
10000968:	5caa      	ldrb	r2, [r5, r2]
1000096a:	1ccb      	adds	r3, r1, #3
1000096c:	7072      	strb	r2, [r6, #1]
1000096e:	429c      	cmp	r4, r3
10000970:	d03e      	beq.n	100009f0 <extract_user_info+0xec>
10000972:	5ceb      	ldrb	r3, [r5, r3]
10000974:	1d0a      	adds	r2, r1, #4
10000976:	70b3      	strb	r3, [r6, #2]
10000978:	4294      	cmp	r4, r2
1000097a:	d039      	beq.n	100009f0 <extract_user_info+0xec>
1000097c:	5caa      	ldrb	r2, [r5, r2]
1000097e:	1d4b      	adds	r3, r1, #5
10000980:	70f2      	strb	r2, [r6, #3]
10000982:	429c      	cmp	r4, r3
10000984:	d034      	beq.n	100009f0 <extract_user_info+0xec>
10000986:	5ceb      	ldrb	r3, [r5, r3]
10000988:	1d8a      	adds	r2, r1, #6
1000098a:	7133      	strb	r3, [r6, #4]
1000098c:	4294      	cmp	r4, r2
1000098e:	d02f      	beq.n	100009f0 <extract_user_info+0xec>
10000990:	5caa      	ldrb	r2, [r5, r2]
10000992:	1dcb      	adds	r3, r1, #7
10000994:	7172      	strb	r2, [r6, #5]
10000996:	429c      	cmp	r4, r3
10000998:	d02a      	beq.n	100009f0 <extract_user_info+0xec>
1000099a:	000a      	movs	r2, r1
1000099c:	5ceb      	ldrb	r3, [r5, r3]
1000099e:	3208      	adds	r2, #8
100009a0:	71b3      	strb	r3, [r6, #6]
100009a2:	4294      	cmp	r4, r2
100009a4:	d024      	beq.n	100009f0 <extract_user_info+0xec>
100009a6:	000b      	movs	r3, r1
100009a8:	5caa      	ldrb	r2, [r5, r2]
100009aa:	3309      	adds	r3, #9
100009ac:	71f2      	strb	r2, [r6, #7]
100009ae:	429c      	cmp	r4, r3
100009b0:	d01e      	beq.n	100009f0 <extract_user_info+0xec>
100009b2:	000a      	movs	r2, r1
100009b4:	5ceb      	ldrb	r3, [r5, r3]
100009b6:	320a      	adds	r2, #10
100009b8:	7233      	strb	r3, [r6, #8]
100009ba:	4294      	cmp	r4, r2
100009bc:	d018      	beq.n	100009f0 <extract_user_info+0xec>
100009be:	000b      	movs	r3, r1
100009c0:	5caa      	ldrb	r2, [r5, r2]
100009c2:	330b      	adds	r3, #11
100009c4:	7272      	strb	r2, [r6, #9]
100009c6:	429c      	cmp	r4, r3
100009c8:	d012      	beq.n	100009f0 <extract_user_info+0xec>
100009ca:	000a      	movs	r2, r1
100009cc:	5ceb      	ldrb	r3, [r5, r3]
100009ce:	320c      	adds	r2, #12
100009d0:	72b3      	strb	r3, [r6, #10]
100009d2:	4294      	cmp	r4, r2
100009d4:	d00c      	beq.n	100009f0 <extract_user_info+0xec>
100009d6:	000b      	movs	r3, r1
100009d8:	5caa      	ldrb	r2, [r5, r2]
100009da:	330d      	adds	r3, #13
100009dc:	72f2      	strb	r2, [r6, #11]
100009de:	429c      	cmp	r4, r3
100009e0:	d006      	beq.n	100009f0 <extract_user_info+0xec>
100009e2:	5ceb      	ldrb	r3, [r5, r3]
100009e4:	310e      	adds	r1, #14
100009e6:	7333      	strb	r3, [r6, #12]
100009e8:	428c      	cmp	r4, r1
100009ea:	d001      	beq.n	100009f0 <extract_user_info+0xec>
100009ec:	5c6b      	ldrb	r3, [r5, r1]
100009ee:	7373      	strb	r3, [r6, #13]
100009f0:	7833      	ldrb	r3, [r6, #0]
100009f2:	2b2b      	cmp	r3, #43	@ 0x2b
100009f4:	d015      	beq.n	10000a22 <extract_user_info+0x11e>
100009f6:	4947      	ldr	r1, [pc, #284]	@ (10000b14 <extract_user_info+0x210>)
100009f8:	e000      	b.n	100009fc <extract_user_info+0xf8>
100009fa:	4947      	ldr	r1, [pc, #284]	@ (10000b18 <extract_user_info+0x214>)
100009fc:	4b47      	ldr	r3, [pc, #284]	@ (10000b1c <extract_user_info+0x218>)
100009fe:	6818      	ldr	r0, [r3, #0]
10000a00:	f7ff fd5c 	bl	100004bc <response_back>
10000a04:	2232      	movs	r2, #50	@ 0x32
10000a06:	2100      	movs	r1, #0
10000a08:	0028      	movs	r0, r5
10000a0a:	f002 fd59 	bl	100034c0 <__wrap_memset>
10000a0e:	220e      	movs	r2, #14
10000a10:	2100      	movs	r1, #0
10000a12:	4843      	ldr	r0, [pc, #268]	@ (10000b20 <extract_user_info+0x21c>)
10000a14:	f002 fd54 	bl	100034c0 <__wrap_memset>
10000a18:	2000      	movs	r0, #0
10000a1a:	b032      	add	sp, #200	@ 0xc8
10000a1c:	bc80      	pop	{r7}
10000a1e:	46b8      	mov	r8, r7
10000a20:	bdf0      	pop	{r4, r5, r6, r7, pc}
10000a22:	0030      	movs	r0, r6
10000a24:	f000 fe46 	bl	100016b4 <strlen_mod>
10000a28:	280d      	cmp	r0, #13
10000a2a:	d012      	beq.n	10000a52 <extract_user_info+0x14e>
10000a2c:	493d      	ldr	r1, [pc, #244]	@ (10000b24 <extract_user_info+0x220>)
10000a2e:	e7e5      	b.n	100009fc <extract_user_info+0xf8>
10000a30:	2300      	movs	r3, #0
10000a32:	0021      	movs	r1, r4
10000a34:	3701      	adds	r7, #1
10000a36:	553b      	strb	r3, [r7, r4]
10000a38:	1c63      	adds	r3, r4, #1
10000a3a:	18ef      	adds	r7, r5, r3
10000a3c:	003a      	movs	r2, r7
10000a3e:	4332      	orrs	r2, r6
10000a40:	0792      	lsls	r2, r2, #30
10000a42:	d024      	beq.n	10000a8e <extract_user_info+0x18a>
10000a44:	5ceb      	ldrb	r3, [r5, r3]
10000a46:	1c8a      	adds	r2, r1, #2
10000a48:	7033      	strb	r3, [r6, #0]
10000a4a:	42a2      	cmp	r2, r4
10000a4c:	d000      	beq.n	10000a50 <extract_user_info+0x14c>
10000a4e:	e78b      	b.n	10000968 <extract_user_info+0x64>
10000a50:	e7ce      	b.n	100009f0 <extract_user_info+0xec>
10000a52:	492f      	ldr	r1, [pc, #188]	@ (10000b10 <extract_user_info+0x20c>)
10000a54:	4834      	ldr	r0, [pc, #208]	@ (10000b28 <extract_user_info+0x224>)
10000a56:	f000 fddf 	bl	10001618 <join_strings>
10000a5a:	4c34      	ldr	r4, [pc, #208]	@ (10000b2c <extract_user_info+0x228>)
10000a5c:	4668      	mov	r0, sp
10000a5e:	0021      	movs	r1, r4
10000a60:	f000 fe34 	bl	100016cc <strcpy_mod>
10000a64:	22c8      	movs	r2, #200	@ 0xc8
10000a66:	2100      	movs	r1, #0
10000a68:	0020      	movs	r0, r4
10000a6a:	f002 fd29 	bl	100034c0 <__wrap_memset>
10000a6e:	4669      	mov	r1, sp
10000a70:	0030      	movs	r0, r6
10000a72:	f7ff fd23 	bl	100004bc <response_back>
10000a76:	2232      	movs	r2, #50	@ 0x32
10000a78:	2100      	movs	r1, #0
10000a7a:	0028      	movs	r0, r5
10000a7c:	f002 fd20 	bl	100034c0 <__wrap_memset>
10000a80:	220e      	movs	r2, #14
10000a82:	2100      	movs	r1, #0
10000a84:	4826      	ldr	r0, [pc, #152]	@ (10000b20 <extract_user_info+0x21c>)
10000a86:	f002 fd1b 	bl	100034c0 <__wrap_memset>
10000a8a:	2001      	movs	r0, #1
10000a8c:	e7c5      	b.n	10000a1a <extract_user_info+0x116>
10000a8e:	3801      	subs	r0, #1
10000a90:	0882      	lsrs	r2, r0, #2
10000a92:	4690      	mov	r8, r2
10000a94:	683a      	ldr	r2, [r7, #0]
10000a96:	0a11      	lsrs	r1, r2, #8
10000a98:	7032      	strb	r2, [r6, #0]
10000a9a:	7071      	strb	r1, [r6, #1]
10000a9c:	0c11      	lsrs	r1, r2, #16
10000a9e:	0e12      	lsrs	r2, r2, #24
10000aa0:	70f2      	strb	r2, [r6, #3]
10000aa2:	4642      	mov	r2, r8
10000aa4:	70b1      	strb	r1, [r6, #2]
10000aa6:	2a01      	cmp	r2, #1
10000aa8:	d012      	beq.n	10000ad0 <extract_user_info+0x1cc>
10000aaa:	687a      	ldr	r2, [r7, #4]
10000aac:	0a11      	lsrs	r1, r2, #8
10000aae:	7132      	strb	r2, [r6, #4]
10000ab0:	7171      	strb	r1, [r6, #5]
10000ab2:	0c11      	lsrs	r1, r2, #16
10000ab4:	0e12      	lsrs	r2, r2, #24
10000ab6:	71f2      	strb	r2, [r6, #7]
10000ab8:	4642      	mov	r2, r8
10000aba:	71b1      	strb	r1, [r6, #6]
10000abc:	2a02      	cmp	r2, #2
10000abe:	d007      	beq.n	10000ad0 <extract_user_info+0x1cc>
10000ac0:	68ba      	ldr	r2, [r7, #8]
10000ac2:	0a11      	lsrs	r1, r2, #8
10000ac4:	7232      	strb	r2, [r6, #8]
10000ac6:	7271      	strb	r1, [r6, #9]
10000ac8:	0c11      	lsrs	r1, r2, #16
10000aca:	0e12      	lsrs	r2, r2, #24
10000acc:	72b1      	strb	r1, [r6, #10]
10000ace:	72f2      	strb	r2, [r6, #11]
10000ad0:	2103      	movs	r1, #3
10000ad2:	0002      	movs	r2, r0
10000ad4:	438a      	bics	r2, r1
10000ad6:	18d3      	adds	r3, r2, r3
10000ad8:	4201      	tst	r1, r0
10000ada:	d100      	bne.n	10000ade <extract_user_info+0x1da>
10000adc:	e788      	b.n	100009f0 <extract_user_info+0xec>
10000ade:	5ce8      	ldrb	r0, [r5, r3]
10000ae0:	1c59      	adds	r1, r3, #1
10000ae2:	54b0      	strb	r0, [r6, r2]
10000ae4:	1c50      	adds	r0, r2, #1
10000ae6:	428c      	cmp	r4, r1
10000ae8:	d100      	bne.n	10000aec <extract_user_info+0x1e8>
10000aea:	e781      	b.n	100009f0 <extract_user_info+0xec>
10000aec:	5c69      	ldrb	r1, [r5, r1]
10000aee:	3302      	adds	r3, #2
10000af0:	5431      	strb	r1, [r6, r0]
10000af2:	3202      	adds	r2, #2
10000af4:	429c      	cmp	r4, r3
10000af6:	d100      	bne.n	10000afa <extract_user_info+0x1f6>
10000af8:	e77a      	b.n	100009f0 <extract_user_info+0xec>
10000afa:	5ceb      	ldrb	r3, [r5, r3]
10000afc:	54b3      	strb	r3, [r6, r2]
10000afe:	e777      	b.n	100009f0 <extract_user_info+0xec>
10000b00:	200006fc 	.word	0x200006fc
10000b04:	200001a8 	.word	0x200001a8
10000b08:	10003cbc 	.word	0x10003cbc
10000b0c:	20000677 	.word	0x20000677
10000b10:	20000678 	.word	0x20000678
10000b14:	10003c34 	.word	0x10003c34
10000b18:	10003cc0 	.word	0x10003cc0
10000b1c:	200001b8 	.word	0x200001b8
10000b20:	20000730 	.word	0x20000730
10000b24:	10003c70 	.word	0x10003c70
10000b28:	10003cac 	.word	0x10003cac
10000b2c:	20000744 	.word	0x20000744

10000b30 <reset_module>:
10000b30:	b5f8      	push	{r3, r4, r5, r6, r7, lr}
10000b32:	0004      	movs	r4, r0
10000b34:	f000 fa80 	bl	10001038 <clear_buffer>
10000b38:	2000      	movs	r0, #0
10000b3a:	f001 fe15 	bl	10002768 <sleep_ms>
10000b3e:	4e31      	ldr	r6, [pc, #196]	@ (10000c04 <reset_module+0xd4>)
10000b40:	7833      	ldrb	r3, [r6, #0]
10000b42:	2b01      	cmp	r3, #1
10000b44:	d94d      	bls.n	10000be2 <reset_module+0xb2>
10000b46:	2b02      	cmp	r3, #2
10000b48:	d00f      	beq.n	10000b6a <reset_module+0x3a>
10000b4a:	482f      	ldr	r0, [pc, #188]	@ (10000c08 <reset_module+0xd8>)
10000b4c:	f000 fb74 	bl	10001238 <sendDataOverUART>
10000b50:	482e      	ldr	r0, [pc, #184]	@ (10000c0c <reset_module+0xdc>)
10000b52:	f001 fe09 	bl	10002768 <sleep_ms>
10000b56:	482e      	ldr	r0, [pc, #184]	@ (10000c10 <reset_module+0xe0>)
10000b58:	f000 fb6e 	bl	10001238 <sendDataOverUART>
10000b5c:	482b      	ldr	r0, [pc, #172]	@ (10000c0c <reset_module+0xdc>)
10000b5e:	f001 fe03 	bl	10002768 <sleep_ms>
10000b62:	482c      	ldr	r0, [pc, #176]	@ (10000c14 <reset_module+0xe4>)
10000b64:	f000 fb68 	bl	10001238 <sendDataOverUART>
10000b68:	e7fe      	b.n	10000b68 <reset_module+0x38>
10000b6a:	2506      	movs	r5, #6
10000b6c:	4f26      	ldr	r7, [pc, #152]	@ (10000c08 <reset_module+0xd8>)
10000b6e:	3d01      	subs	r5, #1
10000b70:	b2ed      	uxtb	r5, r5
10000b72:	2d00      	cmp	r5, #0
10000b74:	d02f      	beq.n	10000bd6 <reset_module+0xa6>
10000b76:	0038      	movs	r0, r7
10000b78:	f000 fb5e 	bl	10001238 <sendDataOverUART>
10000b7c:	f000 fa3a 	bl	10000ff4 <checkResponse>
10000b80:	1e04      	subs	r4, r0, #0
10000b82:	d1f4      	bne.n	10000b6e <reset_module+0x3e>
10000b84:	f000 fa58 	bl	10001038 <clear_buffer>
10000b88:	2005      	movs	r0, #5
10000b8a:	f001 fded 	bl	10002768 <sleep_ms>
10000b8e:	4f20      	ldr	r7, [pc, #128]	@ (10000c10 <reset_module+0xe0>)
10000b90:	2c05      	cmp	r4, #5
10000b92:	d020      	beq.n	10000bd6 <reset_module+0xa6>
10000b94:	0038      	movs	r0, r7
10000b96:	f000 fb4f 	bl	10001238 <sendDataOverUART>
10000b9a:	f000 fa2b 	bl	10000ff4 <checkResponse>
10000b9e:	3401      	adds	r4, #1
10000ba0:	0005      	movs	r5, r0
10000ba2:	b2e4      	uxtb	r4, r4
10000ba4:	2800      	cmp	r0, #0
10000ba6:	d1f3      	bne.n	10000b90 <reset_module+0x60>
10000ba8:	f000 fa46 	bl	10001038 <clear_buffer>
10000bac:	2005      	movs	r0, #5
10000bae:	f001 fddb 	bl	10002768 <sleep_ms>
10000bb2:	7833      	ldrb	r3, [r6, #0]
10000bb4:	3301      	adds	r3, #1
10000bb6:	7033      	strb	r3, [r6, #0]
10000bb8:	f000 fc5a 	bl	10001470 <initGSM>
10000bbc:	f000 ff72 	bl	10001aa4 <initGPS>
10000bc0:	4b15      	ldr	r3, [pc, #84]	@ (10000c18 <reset_module+0xe8>)
10000bc2:	4916      	ldr	r1, [pc, #88]	@ (10000c1c <reset_module+0xec>)
10000bc4:	701d      	strb	r5, [r3, #0]
10000bc6:	4b16      	ldr	r3, [pc, #88]	@ (10000c20 <reset_module+0xf0>)
10000bc8:	681b      	ldr	r3, [r3, #0]
10000bca:	2b01      	cmp	r3, #1
10000bcc:	d016      	beq.n	10000bfc <reset_module+0xcc>
10000bce:	4b15      	ldr	r3, [pc, #84]	@ (10000c24 <reset_module+0xf4>)
10000bd0:	6818      	ldr	r0, [r3, #0]
10000bd2:	f7ff fc73 	bl	100004bc <response_back>
10000bd6:	f000 fa2f 	bl	10001038 <clear_buffer>
10000bda:	2001      	movs	r0, #1
10000bdc:	f001 fdc4 	bl	10002768 <sleep_ms>
10000be0:	bdf8      	pop	{r3, r4, r5, r6, r7, pc}
10000be2:	2506      	movs	r5, #6
10000be4:	2c01      	cmp	r4, #1
10000be6:	d0c1      	beq.n	10000b6c <reset_module+0x3c>
10000be8:	2200      	movs	r2, #0
10000bea:	3301      	adds	r3, #1
10000bec:	7033      	strb	r3, [r6, #0]
10000bee:	4b0a      	ldr	r3, [pc, #40]	@ (10000c18 <reset_module+0xe8>)
10000bf0:	701a      	strb	r2, [r3, #0]
10000bf2:	f000 fc3d 	bl	10001470 <initGSM>
10000bf6:	f000 ff55 	bl	10001aa4 <initGPS>
10000bfa:	e7ec      	b.n	10000bd6 <reset_module+0xa6>
10000bfc:	480a      	ldr	r0, [pc, #40]	@ (10000c28 <reset_module+0xf8>)
10000bfe:	f7ff fc5d 	bl	100004bc <response_back>
10000c02:	e7e8      	b.n	10000bd6 <reset_module+0xa6>
10000c04:	20000c3c 	.word	0x20000c3c
10000c08:	10003ce4 	.word	0x10003ce4
10000c0c:	00002710 	.word	0x00002710
10000c10:	10003cf0 	.word	0x10003cf0
10000c14:	10003cfc 	.word	0x10003cfc
10000c18:	20000c40 	.word	0x20000c40
10000c1c:	10003d08 	.word	0x10003d08
10000c20:	20000c38 	.word	0x20000c38
10000c24:	200001b8 	.word	0x200001b8
10000c28:	200001a8 	.word	0x200001a8

10000c2c <wait_for_message>:
10000c2c:	b5f0      	push	{r4, r5, r6, r7, lr}
10000c2e:	464e      	mov	r6, r9
10000c30:	4645      	mov	r5, r8
10000c32:	46de      	mov	lr, fp
10000c34:	4657      	mov	r7, sl
10000c36:	b5e0      	push	{r5, r6, r7, lr}
10000c38:	4bc3      	ldr	r3, [pc, #780]	@ (10000f48 <wait_for_message+0x31c>)
10000c3a:	4ec4      	ldr	r6, [pc, #784]	@ (10000f4c <wait_for_message+0x320>)
10000c3c:	4698      	mov	r8, r3
10000c3e:	681b      	ldr	r3, [r3, #0]
10000c40:	b097      	sub	sp, #92	@ 0x5c
10000c42:	2b00      	cmp	r3, #0
10000c44:	d100      	bne.n	10000c48 <wait_for_message+0x1c>
10000c46:	e13e      	b.n	10000ec6 <wait_for_message+0x29a>
10000c48:	4bc1      	ldr	r3, [pc, #772]	@ (10000f50 <wait_for_message+0x324>)
10000c4a:	4dc2      	ldr	r5, [pc, #776]	@ (10000f54 <wait_for_message+0x328>)
10000c4c:	469a      	mov	sl, r3
10000c4e:	4bc2      	ldr	r3, [pc, #776]	@ (10000f58 <wait_for_message+0x32c>)
10000c50:	9307      	str	r3, [sp, #28]
10000c52:	4bc2      	ldr	r3, [pc, #776]	@ (10000f5c <wait_for_message+0x330>)
10000c54:	9308      	str	r3, [sp, #32]
10000c56:	f000 f9ef 	bl	10001038 <clear_buffer>
10000c5a:	4bc1      	ldr	r3, [pc, #772]	@ (10000f60 <wait_for_message+0x334>)
10000c5c:	2400      	movs	r4, #0
10000c5e:	469b      	mov	fp, r3
10000c60:	4bc0      	ldr	r3, [pc, #768]	@ (10000f64 <wait_for_message+0x338>)
10000c62:	4fc1      	ldr	r7, [pc, #772]	@ (10000f68 <wait_for_message+0x33c>)
10000c64:	9306      	str	r3, [sp, #24]
10000c66:	4bc1      	ldr	r3, [pc, #772]	@ (10000f6c <wait_for_message+0x340>)
10000c68:	9311      	str	r3, [sp, #68]	@ 0x44
10000c6a:	4bc1      	ldr	r3, [pc, #772]	@ (10000f70 <wait_for_message+0x344>)
10000c6c:	9312      	str	r3, [sp, #72]	@ 0x48
10000c6e:	4bc1      	ldr	r3, [pc, #772]	@ (10000f74 <wait_for_message+0x348>)
10000c70:	9313      	str	r3, [sp, #76]	@ 0x4c
10000c72:	4bc1      	ldr	r3, [pc, #772]	@ (10000f78 <wait_for_message+0x34c>)
10000c74:	9305      	str	r3, [sp, #20]
10000c76:	4bc1      	ldr	r3, [pc, #772]	@ (10000f7c <wait_for_message+0x350>)
10000c78:	9314      	str	r3, [sp, #80]	@ 0x50
10000c7a:	4bc1      	ldr	r3, [pc, #772]	@ (10000f80 <wait_for_message+0x354>)
10000c7c:	930a      	str	r3, [sp, #40]	@ 0x28
10000c7e:	4bc1      	ldr	r3, [pc, #772]	@ (10000f84 <wait_for_message+0x358>)
10000c80:	930c      	str	r3, [sp, #48]	@ 0x30
10000c82:	4bc1      	ldr	r3, [pc, #772]	@ (10000f88 <wait_for_message+0x35c>)
10000c84:	9309      	str	r3, [sp, #36]	@ 0x24
10000c86:	4bc1      	ldr	r3, [pc, #772]	@ (10000f8c <wait_for_message+0x360>)
10000c88:	930b      	str	r3, [sp, #44]	@ 0x2c
10000c8a:	4bc1      	ldr	r3, [pc, #772]	@ (10000f90 <wait_for_message+0x364>)
10000c8c:	9310      	str	r3, [sp, #64]	@ 0x40
10000c8e:	4bc1      	ldr	r3, [pc, #772]	@ (10000f94 <wait_for_message+0x368>)
10000c90:	9315      	str	r3, [sp, #84]	@ 0x54
10000c92:	4bc1      	ldr	r3, [pc, #772]	@ (10000f98 <wait_for_message+0x36c>)
10000c94:	930f      	str	r3, [sp, #60]	@ 0x3c
10000c96:	4bc1      	ldr	r3, [pc, #772]	@ (10000f9c <wait_for_message+0x370>)
10000c98:	4699      	mov	r9, r3
10000c9a:	2000      	movs	r0, #0
10000c9c:	f001 fd64 	bl	10002768 <sleep_ms>
10000ca0:	4643      	mov	r3, r8
10000ca2:	681a      	ldr	r2, [r3, #0]
10000ca4:	465b      	mov	r3, fp
10000ca6:	781b      	ldrb	r3, [r3, #0]
10000ca8:	2a01      	cmp	r2, #1
10000caa:	d044      	beq.n	10000d36 <wait_for_message+0x10a>
10000cac:	2a00      	cmp	r2, #0
10000cae:	d132      	bne.n	10000d16 <wait_for_message+0xea>
10000cb0:	2b00      	cmp	r3, #0
10000cb2:	d130      	bne.n	10000d16 <wait_for_message+0xea>
10000cb4:	6833      	ldr	r3, [r6, #0]
10000cb6:	2b00      	cmp	r3, #0
10000cb8:	d000      	beq.n	10000cbc <wait_for_message+0x90>
10000cba:	e0a0      	b.n	10000dfe <wait_for_message+0x1d2>
10000cbc:	9b05      	ldr	r3, [sp, #20]
10000cbe:	781b      	ldrb	r3, [r3, #0]
10000cc0:	b25b      	sxtb	r3, r3
10000cc2:	2b01      	cmp	r3, #1
10000cc4:	d1e9      	bne.n	10000c9a <wait_for_message+0x6e>
10000cc6:	782b      	ldrb	r3, [r5, #0]
10000cc8:	2b04      	cmp	r3, #4
10000cca:	d819      	bhi.n	10000d00 <wait_for_message+0xd4>
10000ccc:	4654      	mov	r4, sl
10000cce:	e008      	b.n	10000ce2 <wait_for_message+0xb6>
10000cd0:	f000 f9b2 	bl	10001038 <clear_buffer>
10000cd4:	2000      	movs	r0, #0
10000cd6:	f001 fd47 	bl	10002768 <sleep_ms>
10000cda:	782b      	ldrb	r3, [r5, #0]
10000cdc:	2b04      	cmp	r3, #4
10000cde:	d900      	bls.n	10000ce2 <wait_for_message+0xb6>
10000ce0:	e0dc      	b.n	10000e9c <wait_for_message+0x270>
10000ce2:	0020      	movs	r0, r4
10000ce4:	f000 faa8 	bl	10001238 <sendDataOverUART>
10000ce8:	782b      	ldrb	r3, [r5, #0]
10000cea:	3301      	adds	r3, #1
10000cec:	702b      	strb	r3, [r5, #0]
10000cee:	f000 f981 	bl	10000ff4 <checkResponse>
10000cf2:	2800      	cmp	r0, #0
10000cf4:	d1ec      	bne.n	10000cd0 <wait_for_message+0xa4>
10000cf6:	46a2      	mov	sl, r4
10000cf8:	0004      	movs	r4, r0
10000cfa:	f000 f99d 	bl	10001038 <clear_buffer>
10000cfe:	702c      	strb	r4, [r5, #0]
10000d00:	2300      	movs	r3, #0
10000d02:	9a07      	ldr	r2, [sp, #28]
10000d04:	2400      	movs	r4, #0
10000d06:	7013      	strb	r3, [r2, #0]
10000d08:	9a08      	ldr	r2, [sp, #32]
10000d0a:	6013      	str	r3, [r2, #0]
10000d0c:	9a0a      	ldr	r2, [sp, #40]	@ 0x28
10000d0e:	7013      	strb	r3, [r2, #0]
10000d10:	9a05      	ldr	r2, [sp, #20]
10000d12:	7013      	strb	r3, [r2, #0]
10000d14:	e7c1      	b.n	10000c9a <wait_for_message+0x6e>
10000d16:	2b01      	cmp	r3, #1
10000d18:	d03f      	beq.n	10000d9a <wait_for_message+0x16e>
10000d1a:	2b05      	cmp	r3, #5
10000d1c:	d1bd      	bne.n	10000c9a <wait_for_message+0x6e>
10000d1e:	2c01      	cmp	r4, #1
10000d20:	d1bb      	bne.n	10000c9a <wait_for_message+0x6e>
10000d22:	980f      	ldr	r0, [sp, #60]	@ 0x3c
10000d24:	f000 fabc 	bl	100012a0 <sendDataOverDebug>
10000d28:	2300      	movs	r3, #0
10000d2a:	465a      	mov	r2, fp
10000d2c:	2400      	movs	r4, #0
10000d2e:	7013      	strb	r3, [r2, #0]
10000d30:	f000 f982 	bl	10001038 <clear_buffer>
10000d34:	e7b1      	b.n	10000c9a <wait_for_message+0x6e>
10000d36:	2b00      	cmp	r3, #0
10000d38:	d1ed      	bne.n	10000d16 <wait_for_message+0xea>
10000d3a:	2000      	movs	r0, #0
10000d3c:	f001 fd14 	bl	10002768 <sleep_ms>
10000d40:	6833      	ldr	r3, [r6, #0]
10000d42:	2b00      	cmp	r3, #0
10000d44:	d010      	beq.n	10000d68 <wait_for_message+0x13c>
10000d46:	2000      	movs	r0, #0
10000d48:	3401      	adds	r4, #1
10000d4a:	f001 fd0d 	bl	10002768 <sleep_ms>
10000d4e:	f000 f973 	bl	10001038 <clear_buffer>
10000d52:	0020      	movs	r0, r4
10000d54:	f000 fc28 	bl	100015a8 <read_message>
10000d58:	0038      	movs	r0, r7
10000d5a:	f000 ff99 	bl	10001c90 <check_authentication>
10000d5e:	f7ff fc5b 	bl	10000618 <perform_functionality>
10000d62:	6833      	ldr	r3, [r6, #0]
10000d64:	2b00      	cmp	r3, #0
10000d66:	d1ee      	bne.n	10000d46 <wait_for_message+0x11a>
10000d68:	9b06      	ldr	r3, [sp, #24]
10000d6a:	781b      	ldrb	r3, [r3, #0]
10000d6c:	2b01      	cmp	r3, #1
10000d6e:	d054      	beq.n	10000e1a <wait_for_message+0x1ee>
10000d70:	9b05      	ldr	r3, [sp, #20]
10000d72:	781b      	ldrb	r3, [r3, #0]
10000d74:	b25b      	sxtb	r3, r3
10000d76:	2b01      	cmp	r3, #1
10000d78:	d074      	beq.n	10000e64 <wait_for_message+0x238>
10000d7a:	9b07      	ldr	r3, [sp, #28]
10000d7c:	9a08      	ldr	r2, [sp, #32]
10000d7e:	781b      	ldrb	r3, [r3, #0]
10000d80:	6812      	ldr	r2, [r2, #0]
10000d82:	4293      	cmp	r3, r2
10000d84:	d189      	bne.n	10000c9a <wait_for_message+0x6e>
10000d86:	9a0a      	ldr	r2, [sp, #40]	@ 0x28
10000d88:	7812      	ldrb	r2, [r2, #0]
10000d8a:	b252      	sxtb	r2, r2
10000d8c:	2a00      	cmp	r2, #0
10000d8e:	d184      	bne.n	10000c9a <wait_for_message+0x6e>
10000d90:	2b00      	cmp	r3, #0
10000d92:	d082      	beq.n	10000c9a <wait_for_message+0x6e>
10000d94:	f7ff fac8 	bl	10000328 <delete_message_timer>
10000d98:	e77f      	b.n	10000c9a <wait_for_message+0x6e>
10000d9a:	2c00      	cmp	r4, #0
10000d9c:	d028      	beq.n	10000df0 <wait_for_message+0x1c4>
10000d9e:	9b09      	ldr	r3, [sp, #36]	@ 0x24
10000da0:	781b      	ldrb	r3, [r3, #0]
10000da2:	b25b      	sxtb	r3, r3
10000da4:	2b00      	cmp	r3, #0
10000da6:	d000      	beq.n	10000daa <wait_for_message+0x17e>
10000da8:	e777      	b.n	10000c9a <wait_for_message+0x6e>
10000daa:	9b0b      	ldr	r3, [sp, #44]	@ 0x2c
10000dac:	781a      	ldrb	r2, [r3, #0]
10000dae:	9b10      	ldr	r3, [sp, #64]	@ 0x40
10000db0:	2100      	movs	r1, #0
10000db2:	5e5b      	ldrsh	r3, [r3, r1]
10000db4:	4293      	cmp	r3, r2
10000db6:	d012      	beq.n	10000dde <wait_for_message+0x1b2>
10000db8:	464b      	mov	r3, r9
10000dba:	2120      	movs	r1, #32
10000dbc:	699b      	ldr	r3, [r3, #24]
10000dbe:	4219      	tst	r1, r3
10000dc0:	d1fa      	bne.n	10000db8 <wait_for_message+0x18c>
10000dc2:	464b      	mov	r3, r9
10000dc4:	2064      	movs	r0, #100	@ 0x64
10000dc6:	601a      	str	r2, [r3, #0]
10000dc8:	f001 fcce 	bl	10002768 <sleep_ms>
10000dcc:	9b0b      	ldr	r3, [sp, #44]	@ 0x2c
10000dce:	781b      	ldrb	r3, [r3, #0]
10000dd0:	b25b      	sxtb	r3, r3
10000dd2:	2b0d      	cmp	r3, #13
10000dd4:	d068      	beq.n	10000ea8 <wait_for_message+0x27c>
10000dd6:	2301      	movs	r3, #1
10000dd8:	9a09      	ldr	r2, [sp, #36]	@ 0x24
10000dda:	7013      	strb	r3, [r2, #0]
10000ddc:	e75d      	b.n	10000c9a <wait_for_message+0x6e>
10000dde:	464b      	mov	r3, r9
10000de0:	2120      	movs	r1, #32
10000de2:	699b      	ldr	r3, [r3, #24]
10000de4:	4219      	tst	r1, r3
10000de6:	d1fa      	bne.n	10000dde <wait_for_message+0x1b2>
10000de8:	230d      	movs	r3, #13
10000dea:	4649      	mov	r1, r9
10000dec:	600b      	str	r3, [r1, #0]
10000dee:	e7e3      	b.n	10000db8 <wait_for_message+0x18c>
10000df0:	980c      	ldr	r0, [sp, #48]	@ 0x30
10000df2:	f000 fa55 	bl	100012a0 <sendDataOverDebug>
10000df6:	3401      	adds	r4, #1
10000df8:	f000 f91e 	bl	10001038 <clear_buffer>
10000dfc:	e74d      	b.n	10000c9a <wait_for_message+0x6e>
10000dfe:	2000      	movs	r0, #0
10000e00:	3401      	adds	r4, #1
10000e02:	f001 fcb1 	bl	10002768 <sleep_ms>
10000e06:	0020      	movs	r0, r4
10000e08:	f000 fbce 	bl	100015a8 <read_message>
10000e0c:	f7ff fd7a 	bl	10000904 <extract_user_info>
10000e10:	4643      	mov	r3, r8
10000e12:	6018      	str	r0, [r3, #0]
10000e14:	f7ff fa88 	bl	10000328 <delete_message_timer>
10000e18:	e750      	b.n	10000cbc <wait_for_message+0x90>
10000e1a:	f000 ff11 	bl	10001c40 <send_location>
10000e1e:	2300      	movs	r3, #0
10000e20:	9a06      	ldr	r2, [sp, #24]
10000e22:	7013      	strb	r3, [r2, #0]
10000e24:	2300      	movs	r3, #0
10000e26:	9a11      	ldr	r2, [sp, #68]	@ 0x44
10000e28:	56d3      	ldrsb	r3, [r2, r3]
10000e2a:	4a5d      	ldr	r2, [pc, #372]	@ (10000fa0 <wait_for_message+0x374>)
10000e2c:	435a      	muls	r2, r3
10000e2e:	920d      	str	r2, [sp, #52]	@ 0x34
10000e30:	f001 fb98 	bl	10002564 <alarm_pool_get_default>
10000e34:	22fa      	movs	r2, #250	@ 0xfa
10000e36:	900e      	str	r0, [sp, #56]	@ 0x38
10000e38:	980d      	ldr	r0, [sp, #52]	@ 0x34
10000e3a:	2300      	movs	r3, #0
10000e3c:	0092      	lsls	r2, r2, #2
10000e3e:	17c1      	asrs	r1, r0, #31
10000e40:	f002 fad4 	bl	100033ec <__wrap___aeabi_lmul>
10000e44:	000b      	movs	r3, r1
10000e46:	9912      	ldr	r1, [sp, #72]	@ 0x48
10000e48:	0002      	movs	r2, r0
10000e4a:	9102      	str	r1, [sp, #8]
10000e4c:	2100      	movs	r1, #0
10000e4e:	9101      	str	r1, [sp, #4]
10000e50:	9913      	ldr	r1, [sp, #76]	@ 0x4c
10000e52:	980e      	ldr	r0, [sp, #56]	@ 0x38
10000e54:	9100      	str	r1, [sp, #0]
10000e56:	f001 fd3d 	bl	100028d4 <alarm_pool_add_repeating_timer_us>
10000e5a:	9b05      	ldr	r3, [sp, #20]
10000e5c:	781b      	ldrb	r3, [r3, #0]
10000e5e:	b25b      	sxtb	r3, r3
10000e60:	2b01      	cmp	r3, #1
10000e62:	d18a      	bne.n	10000d7a <wait_for_message+0x14e>
10000e64:	9814      	ldr	r0, [sp, #80]	@ 0x50
10000e66:	f001 fdc9 	bl	100029fc <cancel_repeating_timer>
10000e6a:	782b      	ldrb	r3, [r5, #0]
10000e6c:	2b04      	cmp	r3, #4
10000e6e:	d900      	bls.n	10000e72 <wait_for_message+0x246>
10000e70:	e746      	b.n	10000d00 <wait_for_message+0xd4>
10000e72:	4654      	mov	r4, sl
10000e74:	e007      	b.n	10000e86 <wait_for_message+0x25a>
10000e76:	f000 f8df 	bl	10001038 <clear_buffer>
10000e7a:	2000      	movs	r0, #0
10000e7c:	f001 fc74 	bl	10002768 <sleep_ms>
10000e80:	782b      	ldrb	r3, [r5, #0]
10000e82:	2b04      	cmp	r3, #4
10000e84:	d819      	bhi.n	10000eba <wait_for_message+0x28e>
10000e86:	0020      	movs	r0, r4
10000e88:	f000 f9d6 	bl	10001238 <sendDataOverUART>
10000e8c:	782b      	ldrb	r3, [r5, #0]
10000e8e:	3301      	adds	r3, #1
10000e90:	702b      	strb	r3, [r5, #0]
10000e92:	f000 f8af 	bl	10000ff4 <checkResponse>
10000e96:	2800      	cmp	r0, #0
10000e98:	d1ed      	bne.n	10000e76 <wait_for_message+0x24a>
10000e9a:	e72c      	b.n	10000cf6 <wait_for_message+0xca>
10000e9c:	2000      	movs	r0, #0
10000e9e:	f7ff fe47 	bl	10000b30 <reset_module>
10000ea2:	2300      	movs	r3, #0
10000ea4:	702b      	strb	r3, [r5, #0]
10000ea6:	e71c      	b.n	10000ce2 <wait_for_message+0xb6>
10000ea8:	2001      	movs	r0, #1
10000eaa:	f001 fc5d 	bl	10002768 <sleep_ms>
10000eae:	9815      	ldr	r0, [sp, #84]	@ 0x54
10000eb0:	f000 f9f6 	bl	100012a0 <sendDataOverDebug>
10000eb4:	f000 f8c0 	bl	10001038 <clear_buffer>
10000eb8:	e78d      	b.n	10000dd6 <wait_for_message+0x1aa>
10000eba:	2000      	movs	r0, #0
10000ebc:	f7ff fe38 	bl	10000b30 <reset_module>
10000ec0:	2300      	movs	r3, #0
10000ec2:	702b      	strb	r3, [r5, #0]
10000ec4:	e7df      	b.n	10000e86 <wait_for_message+0x25a>
10000ec6:	6833      	ldr	r3, [r6, #0]
10000ec8:	2b00      	cmp	r3, #0
10000eca:	d109      	bne.n	10000ee0 <wait_for_message+0x2b4>
10000ecc:	4b20      	ldr	r3, [pc, #128]	@ (10000f50 <wait_for_message+0x324>)
10000ece:	4d21      	ldr	r5, [pc, #132]	@ (10000f54 <wait_for_message+0x328>)
10000ed0:	469a      	mov	sl, r3
10000ed2:	4b21      	ldr	r3, [pc, #132]	@ (10000f58 <wait_for_message+0x32c>)
10000ed4:	9307      	str	r3, [sp, #28]
10000ed6:	4b21      	ldr	r3, [pc, #132]	@ (10000f5c <wait_for_message+0x330>)
10000ed8:	9308      	str	r3, [sp, #32]
10000eda:	f7ff fb8b 	bl	100005f4 <get_user_info>
10000ede:	e6ba      	b.n	10000c56 <wait_for_message+0x2a>
10000ee0:	4930      	ldr	r1, [pc, #192]	@ (10000fa4 <wait_for_message+0x378>)
10000ee2:	4831      	ldr	r0, [pc, #196]	@ (10000fa8 <wait_for_message+0x37c>)
10000ee4:	f7ff faea 	bl	100004bc <response_back>
10000ee8:	4b19      	ldr	r3, [pc, #100]	@ (10000f50 <wait_for_message+0x324>)
10000eea:	4d1a      	ldr	r5, [pc, #104]	@ (10000f54 <wait_for_message+0x328>)
10000eec:	001c      	movs	r4, r3
10000eee:	782b      	ldrb	r3, [r5, #0]
10000ef0:	2b04      	cmp	r3, #4
10000ef2:	d908      	bls.n	10000f06 <wait_for_message+0x2da>
10000ef4:	e025      	b.n	10000f42 <wait_for_message+0x316>
10000ef6:	f000 f89f 	bl	10001038 <clear_buffer>
10000efa:	2000      	movs	r0, #0
10000efc:	f001 fc34 	bl	10002768 <sleep_ms>
10000f00:	782b      	ldrb	r3, [r5, #0]
10000f02:	2b04      	cmp	r3, #4
10000f04:	d817      	bhi.n	10000f36 <wait_for_message+0x30a>
10000f06:	0020      	movs	r0, r4
10000f08:	f000 f996 	bl	10001238 <sendDataOverUART>
10000f0c:	782b      	ldrb	r3, [r5, #0]
10000f0e:	3301      	adds	r3, #1
10000f10:	702b      	strb	r3, [r5, #0]
10000f12:	f000 f86f 	bl	10000ff4 <checkResponse>
10000f16:	2800      	cmp	r0, #0
10000f18:	d1ed      	bne.n	10000ef6 <wait_for_message+0x2ca>
10000f1a:	46a2      	mov	sl, r4
10000f1c:	0004      	movs	r4, r0
10000f1e:	f000 f88b 	bl	10001038 <clear_buffer>
10000f22:	702c      	strb	r4, [r5, #0]
10000f24:	2300      	movs	r3, #0
10000f26:	4a0c      	ldr	r2, [pc, #48]	@ (10000f58 <wait_for_message+0x32c>)
10000f28:	6033      	str	r3, [r6, #0]
10000f2a:	7013      	strb	r3, [r2, #0]
10000f2c:	9207      	str	r2, [sp, #28]
10000f2e:	4a0b      	ldr	r2, [pc, #44]	@ (10000f5c <wait_for_message+0x330>)
10000f30:	9208      	str	r2, [sp, #32]
10000f32:	6013      	str	r3, [r2, #0]
10000f34:	e7d1      	b.n	10000eda <wait_for_message+0x2ae>
10000f36:	2000      	movs	r0, #0
10000f38:	f7ff fdfa 	bl	10000b30 <reset_module>
10000f3c:	2300      	movs	r3, #0
10000f3e:	702b      	strb	r3, [r5, #0]
10000f40:	e7d5      	b.n	10000eee <wait_for_message+0x2c2>
10000f42:	46a2      	mov	sl, r4
10000f44:	e7ee      	b.n	10000f24 <wait_for_message+0x2f8>
10000f46:	46c0      	nop			@ (mov r8, r8)
10000f48:	20000c38 	.word	0x20000c38
10000f4c:	20000814 	.word	0x20000814
10000f50:	10003d50 	.word	0x10003d50
10000f54:	20000c3d 	.word	0x20000c3d
10000f58:	20000c44 	.word	0x20000c44
10000f5c:	20000674 	.word	0x20000674
10000f60:	20000c3f 	.word	0x20000c3f
10000f64:	20000c45 	.word	0x20000c45
10000f68:	20000730 	.word	0x20000730
10000f6c:	20000c43 	.word	0x20000c43
10000f70:	20000658 	.word	0x20000658
10000f74:	10000301 	.word	0x10000301
10000f78:	20000c3e 	.word	0x20000c3e
10000f7c:	20000640 	.word	0x20000640
10000f80:	20000c47 	.word	0x20000c47
10000f84:	10003d60 	.word	0x10003d60
10000f88:	20000c49 	.word	0x20000c49
10000f8c:	20000c4a 	.word	0x20000c4a
10000f90:	20000c30 	.word	0x20000c30
10000f94:	20000840 	.word	0x20000840
10000f98:	10003d7c 	.word	0x10003d7c
10000f9c:	40034000 	.word	0x40034000
10000fa0:	0000ea60 	.word	0x0000ea60
10000fa4:	10003d24 	.word	0x10003d24
10000fa8:	200001a8 	.word	0x200001a8

10000fac <initModule>:
10000fac:	b510      	push	{r4, lr}
10000fae:	f002 fbb9 	bl	10003724 <stdio_init_all>
10000fb2:	2019      	movs	r0, #25
10000fb4:	f000 fea8 	bl	10001d08 <gpio_init>
10000fb8:	23d0      	movs	r3, #208	@ 0xd0
10000fba:	2280      	movs	r2, #128	@ 0x80
10000fbc:	061b      	lsls	r3, r3, #24
10000fbe:	0492      	lsls	r2, r2, #18
10000fc0:	625a      	str	r2, [r3, #36]	@ 0x24
10000fc2:	f000 f9c9 	bl	10001358 <initUart>
10000fc6:	f000 fa03 	bl	100013d0 <initUartDebug>
10000fca:	f000 fa51 	bl	10001470 <initGSM>
10000fce:	f000 fd69 	bl	10001aa4 <initGPS>
10000fd2:	4b04      	ldr	r3, [pc, #16]	@ (10000fe4 <initModule+0x38>)
10000fd4:	781b      	ldrb	r3, [r3, #0]
10000fd6:	2b00      	cmp	r3, #0
10000fd8:	d000      	beq.n	10000fdc <initModule+0x30>
10000fda:	bd10      	pop	{r4, pc}
10000fdc:	f7ff fe26 	bl	10000c2c <wait_for_message>
10000fe0:	e7fb      	b.n	10000fda <initModule+0x2e>
10000fe2:	46c0      	nop			@ (mov r8, r8)
10000fe4:	20000c40 	.word	0x20000c40

10000fe8 <main>:
10000fe8:	b510      	push	{r4, lr}
10000fea:	f7ff ffdf 	bl	10000fac <initModule>
10000fee:	2000      	movs	r0, #0
10000ff0:	bd10      	pop	{r4, pc}
10000ff2:	46c0      	nop			@ (mov r8, r8)

10000ff4 <checkResponse>:
10000ff4:	b570      	push	{r4, r5, r6, lr}
10000ff6:	4d0c      	ldr	r5, [pc, #48]	@ (10001028 <checkResponse+0x34>)
10000ff8:	4c0c      	ldr	r4, [pc, #48]	@ (1000102c <checkResponse+0x38>)
10000ffa:	4e0d      	ldr	r6, [pc, #52]	@ (10001030 <checkResponse+0x3c>)
10000ffc:	e005      	b.n	1000100a <checkResponse+0x16>
10000ffe:	0031      	movs	r1, r6
10001000:	0020      	movs	r0, r4
10001002:	f000 fba1 	bl	10001748 <strstr_mod>
10001006:	2800      	cmp	r0, #0
10001008:	d00c      	beq.n	10001024 <checkResponse+0x30>
1000100a:	20c8      	movs	r0, #200	@ 0xc8
1000100c:	f001 fbac 	bl	10002768 <sleep_ms>
10001010:	0029      	movs	r1, r5
10001012:	0020      	movs	r0, r4
10001014:	f000 fb98 	bl	10001748 <strstr_mod>
10001018:	2800      	cmp	r0, #0
1000101a:	d1f0      	bne.n	10000ffe <checkResponse+0xa>
1000101c:	2000      	movs	r0, #0
1000101e:	4b05      	ldr	r3, [pc, #20]	@ (10001034 <checkResponse+0x40>)
10001020:	7018      	strb	r0, [r3, #0]
10001022:	bd70      	pop	{r4, r5, r6, pc}
10001024:	3001      	adds	r0, #1
10001026:	e7fa      	b.n	1000101e <checkResponse+0x2a>
10001028:	10003b5c 	.word	0x10003b5c
1000102c:	20000840 	.word	0x20000840
10001030:	10003b60 	.word	0x10003b60
10001034:	20000c40 	.word	0x20000c40

10001038 <clear_buffer>:
10001038:	b510      	push	{r4, lr}
1000103a:	4809      	ldr	r0, [pc, #36]	@ (10001060 <clear_buffer+0x28>)
1000103c:	f000 f930 	bl	100012a0 <sendDataOverDebug>
10001040:	2200      	movs	r2, #0
10001042:	24fa      	movs	r4, #250	@ 0xfa
10001044:	4b07      	ldr	r3, [pc, #28]	@ (10001064 <clear_buffer+0x2c>)
10001046:	0064      	lsls	r4, r4, #1
10001048:	701a      	strb	r2, [r3, #0]
1000104a:	4b07      	ldr	r3, [pc, #28]	@ (10001068 <clear_buffer+0x30>)
1000104c:	2100      	movs	r1, #0
1000104e:	601a      	str	r2, [r3, #0]
10001050:	4806      	ldr	r0, [pc, #24]	@ (1000106c <clear_buffer+0x34>)
10001052:	0022      	movs	r2, r4
10001054:	f002 fa34 	bl	100034c0 <__wrap_memset>
10001058:	0020      	movs	r0, r4
1000105a:	f001 fb85 	bl	10002768 <sleep_ms>
1000105e:	bd10      	pop	{r4, pc}
10001060:	10003d98 	.word	0x10003d98
10001064:	20000c48 	.word	0x20000c48
10001068:	2000068c 	.word	0x2000068c
1000106c:	20000840 	.word	0x20000840

10001070 <uartInterruptHandler>:
10001070:	b5f0      	push	{r4, r5, r6, r7, lr}
10001072:	464e      	mov	r6, r9
10001074:	4645      	mov	r5, r8
10001076:	46de      	mov	lr, fp
10001078:	4657      	mov	r7, sl
1000107a:	b5e0      	push	{r5, r6, r7, lr}
1000107c:	4a41      	ldr	r2, [pc, #260]	@ (10001184 <uartInterruptHandler+0x114>)
1000107e:	4e42      	ldr	r6, [pc, #264]	@ (10001188 <uartInterruptHandler+0x118>)
10001080:	6993      	ldr	r3, [r2, #24]
10001082:	6835      	ldr	r5, [r6, #0]
10001084:	b087      	sub	sp, #28
10001086:	06db      	lsls	r3, r3, #27
10001088:	d500      	bpl.n	1000108c <uartInterruptHandler+0x1c>
1000108a:	e078      	b.n	1000117e <uartInterruptHandler+0x10e>
1000108c:	4c3f      	ldr	r4, [pc, #252]	@ (1000118c <uartInterruptHandler+0x11c>)
1000108e:	4840      	ldr	r0, [pc, #256]	@ (10001190 <uartInterruptHandler+0x120>)
10001090:	46a1      	mov	r9, r4
10001092:	2401      	movs	r4, #1
10001094:	6803      	ldr	r3, [r0, #0]
10001096:	46a0      	mov	r8, r4
10001098:	469b      	mov	fp, r3
1000109a:	4b3e      	ldr	r3, [pc, #248]	@ (10001194 <uartInterruptHandler+0x124>)
1000109c:	493e      	ldr	r1, [pc, #248]	@ (10001198 <uartInterruptHandler+0x128>)
1000109e:	469c      	mov	ip, r3
100010a0:	2310      	movs	r3, #16
100010a2:	680f      	ldr	r7, [r1, #0]
100010a4:	9104      	str	r1, [sp, #16]
100010a6:	9005      	str	r0, [sp, #20]
100010a8:	0019      	movs	r1, r3
100010aa:	6994      	ldr	r4, [r2, #24]
100010ac:	4021      	ands	r1, r4
100010ae:	9101      	str	r1, [sp, #4]
100010b0:	4223      	tst	r3, r4
100010b2:	d1f9      	bne.n	100010a8 <uartInterruptHandler+0x38>
100010b4:	6811      	ldr	r1, [r2, #0]
100010b6:	9102      	str	r1, [sp, #8]
100010b8:	b2c9      	uxtb	r1, r1
100010ba:	9103      	str	r1, [sp, #12]
100010bc:	292b      	cmp	r1, #43	@ 0x2b
100010be:	d00f      	beq.n	100010e0 <uartInterruptHandler+0x70>
100010c0:	2043      	movs	r0, #67	@ 0x43
100010c2:	4240      	negs	r0, r0
100010c4:	4682      	mov	sl, r0
100010c6:	4451      	add	r1, sl
100010c8:	b2c9      	uxtb	r1, r1
100010ca:	468a      	mov	sl, r1
100010cc:	2911      	cmp	r1, #17
100010ce:	d80c      	bhi.n	100010ea <uartInterruptHandler+0x7a>
100010d0:	4650      	mov	r0, sl
100010d2:	4649      	mov	r1, r9
100010d4:	40c1      	lsrs	r1, r0
100010d6:	468a      	mov	sl, r1
100010d8:	4641      	mov	r1, r8
100010da:	4650      	mov	r0, sl
100010dc:	4201      	tst	r1, r0
100010de:	d004      	beq.n	100010ea <uartInterruptHandler+0x7a>
100010e0:	4659      	mov	r1, fp
100010e2:	1bc9      	subs	r1, r1, r7
100010e4:	468a      	mov	sl, r1
100010e6:	2901      	cmp	r1, #1
100010e8:	d02a      	beq.n	10001140 <uartInterruptHandler+0xd0>
100010ea:	2101      	movs	r1, #1
100010ec:	2700      	movs	r7, #0
100010ee:	468b      	mov	fp, r1
100010f0:	9501      	str	r5, [sp, #4]
100010f2:	3501      	adds	r5, #1
100010f4:	4661      	mov	r1, ip
100010f6:	9c01      	ldr	r4, [sp, #4]
100010f8:	9802      	ldr	r0, [sp, #8]
100010fa:	5508      	strb	r0, [r1, r4]
100010fc:	6994      	ldr	r4, [r2, #24]
100010fe:	4223      	tst	r3, r4
10001100:	d0d2      	beq.n	100010a8 <uartInterruptHandler+0x38>
10001102:	465b      	mov	r3, fp
10001104:	2201      	movs	r2, #1
10001106:	9805      	ldr	r0, [sp, #20]
10001108:	9904      	ldr	r1, [sp, #16]
1000110a:	6003      	str	r3, [r0, #0]
1000110c:	4b23      	ldr	r3, [pc, #140]	@ (1000119c <uartInterruptHandler+0x12c>)
1000110e:	9c03      	ldr	r4, [sp, #12]
10001110:	6035      	str	r5, [r6, #0]
10001112:	601a      	str	r2, [r3, #0]
10001114:	600f      	str	r7, [r1, #0]
10001116:	4b22      	ldr	r3, [pc, #136]	@ (100011a0 <uartInterruptHandler+0x130>)
10001118:	2202      	movs	r2, #2
1000111a:	5e9b      	ldrsh	r3, [r3, r2]
1000111c:	42a3      	cmp	r3, r4
1000111e:	d026      	beq.n	1000116e <uartInterruptHandler+0xfe>
10001120:	2120      	movs	r1, #32
10001122:	4a20      	ldr	r2, [pc, #128]	@ (100011a4 <uartInterruptHandler+0x134>)
10001124:	6993      	ldr	r3, [r2, #24]
10001126:	4219      	tst	r1, r3
10001128:	d1fc      	bne.n	10001124 <uartInterruptHandler+0xb4>
1000112a:	6014      	str	r4, [r2, #0]
1000112c:	2201      	movs	r2, #1
1000112e:	4b1e      	ldr	r3, [pc, #120]	@ (100011a8 <uartInterruptHandler+0x138>)
10001130:	701a      	strb	r2, [r3, #0]
10001132:	b007      	add	sp, #28
10001134:	bcf0      	pop	{r4, r5, r6, r7}
10001136:	46bb      	mov	fp, r7
10001138:	46b2      	mov	sl, r6
1000113a:	46a9      	mov	r9, r5
1000113c:	46a0      	mov	r8, r4
1000113e:	bdf0      	pop	{r4, r5, r6, r7, pc}
10001140:	3701      	adds	r7, #1
10001142:	2f05      	cmp	r7, #5
10001144:	d003      	beq.n	1000114e <uartInterruptHandler+0xde>
10001146:	9501      	str	r5, [sp, #4]
10001148:	44d3      	add	fp, sl
1000114a:	3501      	adds	r5, #1
1000114c:	e7d2      	b.n	100010f4 <uartInterruptHandler+0x84>
1000114e:	4f17      	ldr	r7, [pc, #92]	@ (100011ac <uartInterruptHandler+0x13c>)
10001150:	2101      	movs	r1, #1
10001152:	683d      	ldr	r5, [r7, #0]
10001154:	468b      	mov	fp, r1
10001156:	3501      	adds	r5, #1
10001158:	603d      	str	r5, [r7, #0]
1000115a:	2700      	movs	r7, #0
1000115c:	4d14      	ldr	r5, [pc, #80]	@ (100011b0 <uartInterruptHandler+0x140>)
1000115e:	702f      	strb	r7, [r5, #0]
10001160:	4f14      	ldr	r7, [pc, #80]	@ (100011b4 <uartInterruptHandler+0x144>)
10001162:	683d      	ldr	r5, [r7, #0]
10001164:	3501      	adds	r5, #1
10001166:	603d      	str	r5, [r7, #0]
10001168:	2501      	movs	r5, #1
1000116a:	2700      	movs	r7, #0
1000116c:	e7c2      	b.n	100010f4 <uartInterruptHandler+0x84>
1000116e:	2120      	movs	r1, #32
10001170:	4a0c      	ldr	r2, [pc, #48]	@ (100011a4 <uartInterruptHandler+0x134>)
10001172:	6993      	ldr	r3, [r2, #24]
10001174:	4219      	tst	r1, r3
10001176:	d1fc      	bne.n	10001172 <uartInterruptHandler+0x102>
10001178:	230d      	movs	r3, #13
1000117a:	6013      	str	r3, [r2, #0]
1000117c:	e7d0      	b.n	10001120 <uartInterruptHandler+0xb0>
1000117e:	4b0e      	ldr	r3, [pc, #56]	@ (100011b8 <uartInterruptHandler+0x148>)
10001180:	5cec      	ldrb	r4, [r5, r3]
10001182:	e7c8      	b.n	10001116 <uartInterruptHandler+0xa6>
10001184:	40034000 	.word	0x40034000
10001188:	2000068c 	.word	0x2000068c
1000118c:	00020441 	.word	0x00020441
10001190:	20000198 	.word	0x20000198
10001194:	20000840 	.word	0x20000840
10001198:	20000810 	.word	0x20000810
1000119c:	20000670 	.word	0x20000670
100011a0:	20000c30 	.word	0x20000c30
100011a4:	40038000 	.word	0x40038000
100011a8:	20000c48 	.word	0x20000c48
100011ac:	20000814 	.word	0x20000814
100011b0:	20000c46 	.word	0x20000c46
100011b4:	20000674 	.word	0x20000674
100011b8:	2000083f 	.word	0x2000083f

100011bc <uartDebugInterruptHandler>:
100011bc:	4a18      	ldr	r2, [pc, #96]	@ (10001220 <uartDebugInterruptHandler+0x64>)
100011be:	b530      	push	{r4, r5, lr}
100011c0:	6993      	ldr	r3, [r2, #24]
100011c2:	2400      	movs	r4, #0
100011c4:	06db      	lsls	r3, r3, #27
100011c6:	d427      	bmi.n	10001218 <uartDebugInterruptHandler+0x5c>
100011c8:	2500      	movs	r5, #0
100011ca:	2110      	movs	r1, #16
100011cc:	4815      	ldr	r0, [pc, #84]	@ (10001224 <uartDebugInterruptHandler+0x68>)
100011ce:	6993      	ldr	r3, [r2, #24]
100011d0:	4219      	tst	r1, r3
100011d2:	d1fc      	bne.n	100011ce <uartDebugInterruptHandler+0x12>
100011d4:	6813      	ldr	r3, [r2, #0]
100011d6:	b25b      	sxtb	r3, r3
100011d8:	2b7e      	cmp	r3, #126	@ 0x7e
100011da:	d018      	beq.n	1000120e <uartDebugInterruptHandler+0x52>
100011dc:	2b5f      	cmp	r3, #95	@ 0x5f
100011de:	d101      	bne.n	100011e4 <uartDebugInterruptHandler+0x28>
100011e0:	2501      	movs	r5, #1
100011e2:	2405      	movs	r4, #5
100011e4:	7003      	strb	r3, [r0, #0]
100011e6:	6993      	ldr	r3, [r2, #24]
100011e8:	4219      	tst	r1, r3
100011ea:	d0f0      	beq.n	100011ce <uartDebugInterruptHandler+0x12>
100011ec:	4b0e      	ldr	r3, [pc, #56]	@ (10001228 <uartDebugInterruptHandler+0x6c>)
100011ee:	2d00      	cmp	r5, #0
100011f0:	d010      	beq.n	10001214 <uartDebugInterruptHandler+0x58>
100011f2:	701c      	strb	r4, [r3, #0]
100011f4:	2c01      	cmp	r4, #1
100011f6:	d106      	bne.n	10001206 <uartDebugInterruptHandler+0x4a>
100011f8:	4a0a      	ldr	r2, [pc, #40]	@ (10001224 <uartDebugInterruptHandler+0x68>)
100011fa:	4b0c      	ldr	r3, [pc, #48]	@ (1000122c <uartDebugInterruptHandler+0x70>)
100011fc:	7812      	ldrb	r2, [r2, #0]
100011fe:	701a      	strb	r2, [r3, #0]
10001200:	2200      	movs	r2, #0
10001202:	4b0b      	ldr	r3, [pc, #44]	@ (10001230 <uartDebugInterruptHandler+0x74>)
10001204:	701a      	strb	r2, [r3, #0]
10001206:	2201      	movs	r2, #1
10001208:	4b0a      	ldr	r3, [pc, #40]	@ (10001234 <uartDebugInterruptHandler+0x78>)
1000120a:	701a      	strb	r2, [r3, #0]
1000120c:	bd30      	pop	{r4, r5, pc}
1000120e:	2501      	movs	r5, #1
10001210:	2401      	movs	r4, #1
10001212:	e7e7      	b.n	100011e4 <uartDebugInterruptHandler+0x28>
10001214:	781c      	ldrb	r4, [r3, #0]
10001216:	e7ed      	b.n	100011f4 <uartDebugInterruptHandler+0x38>
10001218:	4b03      	ldr	r3, [pc, #12]	@ (10001228 <uartDebugInterruptHandler+0x6c>)
1000121a:	781c      	ldrb	r4, [r3, #0]
1000121c:	e7ea      	b.n	100011f4 <uartDebugInterruptHandler+0x38>
1000121e:	46c0      	nop			@ (mov r8, r8)
10001220:	40038000 	.word	0x40038000
10001224:	20000a34 	.word	0x20000a34
10001228:	20000c3f 	.word	0x20000c3f
1000122c:	20000c4a 	.word	0x20000c4a
10001230:	20000c49 	.word	0x20000c49
10001234:	20000c48 	.word	0x20000c48

10001238 <sendDataOverUART>:
10001238:	b5f0      	push	{r4, r5, r6, r7, lr}
1000123a:	46c6      	mov	lr, r8
1000123c:	0005      	movs	r5, r0
1000123e:	2400      	movs	r4, #0
10001240:	2620      	movs	r6, #32
10001242:	b500      	push	{lr}
10001244:	4f14      	ldr	r7, [pc, #80]	@ (10001298 <sendDataOverUART+0x60>)
10001246:	46a0      	mov	r8, r4
10001248:	e002      	b.n	10001250 <sendDataOverUART+0x18>
1000124a:	69bb      	ldr	r3, [r7, #24]
1000124c:	421e      	tst	r6, r3
1000124e:	d007      	beq.n	10001260 <sendDataOverUART+0x28>
10001250:	0028      	movs	r0, r5
10001252:	f000 fa2f 	bl	100016b4 <strlen_mod>
10001256:	42a0      	cmp	r0, r4
10001258:	d8f7      	bhi.n	1000124a <sendDataOverUART+0x12>
1000125a:	bc80      	pop	{r7}
1000125c:	46b8      	mov	r8, r7
1000125e:	bdf0      	pop	{r4, r5, r6, r7, pc}
10001260:	4643      	mov	r3, r8
10001262:	5ce8      	ldrb	r0, [r5, r3]
10001264:	4b0d      	ldr	r3, [pc, #52]	@ (1000129c <sendDataOverUART+0x64>)
10001266:	3401      	adds	r4, #1
10001268:	2200      	movs	r2, #0
1000126a:	5e9b      	ldrsh	r3, [r3, r2]
1000126c:	b224      	sxth	r4, r4
1000126e:	4283      	cmp	r3, r0
10001270:	d009      	beq.n	10001286 <sendDataOverUART+0x4e>
10001272:	2120      	movs	r1, #32
10001274:	4a08      	ldr	r2, [pc, #32]	@ (10001298 <sendDataOverUART+0x60>)
10001276:	6993      	ldr	r3, [r2, #24]
10001278:	4219      	tst	r1, r3
1000127a:	d1fc      	bne.n	10001276 <sendDataOverUART+0x3e>
1000127c:	6010      	str	r0, [r2, #0]
1000127e:	2032      	movs	r0, #50	@ 0x32
10001280:	f001 fa72 	bl	10002768 <sleep_ms>
10001284:	e7df      	b.n	10001246 <sendDataOverUART+0xe>
10001286:	2120      	movs	r1, #32
10001288:	4a03      	ldr	r2, [pc, #12]	@ (10001298 <sendDataOverUART+0x60>)
1000128a:	6993      	ldr	r3, [r2, #24]
1000128c:	4219      	tst	r1, r3
1000128e:	d1fc      	bne.n	1000128a <sendDataOverUART+0x52>
10001290:	230d      	movs	r3, #13
10001292:	6013      	str	r3, [r2, #0]
10001294:	e7ed      	b.n	10001272 <sendDataOverUART+0x3a>
10001296:	46c0      	nop			@ (mov r8, r8)
10001298:	40034000 	.word	0x40034000
1000129c:	20000c30 	.word	0x20000c30

100012a0 <sendDataOverDebug>:
100012a0:	b5f8      	push	{r3, r4, r5, r6, r7, lr}
100012a2:	4647      	mov	r7, r8
100012a4:	46ce      	mov	lr, r9
100012a6:	4b2a      	ldr	r3, [pc, #168]	@ (10001350 <sendDataOverDebug+0xb0>)
100012a8:	0005      	movs	r5, r0
100012aa:	2400      	movs	r4, #0
100012ac:	4698      	mov	r8, r3
100012ae:	2620      	movs	r6, #32
100012b0:	b580      	push	{r7, lr}
100012b2:	4f28      	ldr	r7, [pc, #160]	@ (10001354 <sendDataOverDebug+0xb4>)
100012b4:	46a1      	mov	r9, r4
100012b6:	e002      	b.n	100012be <sendDataOverDebug+0x1e>
100012b8:	69bb      	ldr	r3, [r7, #24]
100012ba:	421e      	tst	r6, r3
100012bc:	d01d      	beq.n	100012fa <sendDataOverDebug+0x5a>
100012be:	0028      	movs	r0, r5
100012c0:	f000 f9f8 	bl	100016b4 <strlen_mod>
100012c4:	42a0      	cmp	r0, r4
100012c6:	d8f7      	bhi.n	100012b8 <sendDataOverDebug+0x18>
100012c8:	4643      	mov	r3, r8
100012ca:	2002      	movs	r0, #2
100012cc:	5e18      	ldrsh	r0, [r3, r0]
100012ce:	280d      	cmp	r0, #13
100012d0:	d026      	beq.n	10001320 <sendDataOverDebug+0x80>
100012d2:	2120      	movs	r1, #32
100012d4:	4a1f      	ldr	r2, [pc, #124]	@ (10001354 <sendDataOverDebug+0xb4>)
100012d6:	6993      	ldr	r3, [r2, #24]
100012d8:	4219      	tst	r1, r3
100012da:	d1fc      	bne.n	100012d6 <sendDataOverDebug+0x36>
100012dc:	230d      	movs	r3, #13
100012de:	6013      	str	r3, [r2, #0]
100012e0:	280a      	cmp	r0, #10
100012e2:	d025      	beq.n	10001330 <sendDataOverDebug+0x90>
100012e4:	2120      	movs	r1, #32
100012e6:	4a1b      	ldr	r2, [pc, #108]	@ (10001354 <sendDataOverDebug+0xb4>)
100012e8:	6993      	ldr	r3, [r2, #24]
100012ea:	4219      	tst	r1, r3
100012ec:	d1fc      	bne.n	100012e8 <sendDataOverDebug+0x48>
100012ee:	230a      	movs	r3, #10
100012f0:	6013      	str	r3, [r2, #0]
100012f2:	bcc0      	pop	{r6, r7}
100012f4:	46b9      	mov	r9, r7
100012f6:	46b0      	mov	r8, r6
100012f8:	bdf8      	pop	{r3, r4, r5, r6, r7, pc}
100012fa:	464b      	mov	r3, r9
100012fc:	5ce8      	ldrb	r0, [r5, r3]
100012fe:	4643      	mov	r3, r8
10001300:	2202      	movs	r2, #2
10001302:	5e9b      	ldrsh	r3, [r3, r2]
10001304:	3401      	adds	r4, #1
10001306:	b224      	sxth	r4, r4
10001308:	4283      	cmp	r3, r0
1000130a:	d019      	beq.n	10001340 <sendDataOverDebug+0xa0>
1000130c:	2120      	movs	r1, #32
1000130e:	4a11      	ldr	r2, [pc, #68]	@ (10001354 <sendDataOverDebug+0xb4>)
10001310:	6993      	ldr	r3, [r2, #24]
10001312:	4219      	tst	r1, r3
10001314:	d1fc      	bne.n	10001310 <sendDataOverDebug+0x70>
10001316:	6010      	str	r0, [r2, #0]
10001318:	2032      	movs	r0, #50	@ 0x32
1000131a:	f001 fa25 	bl	10002768 <sleep_ms>
1000131e:	e7c9      	b.n	100012b4 <sendDataOverDebug+0x14>
10001320:	2120      	movs	r1, #32
10001322:	4a0c      	ldr	r2, [pc, #48]	@ (10001354 <sendDataOverDebug+0xb4>)
10001324:	6993      	ldr	r3, [r2, #24]
10001326:	4219      	tst	r1, r3
10001328:	d1fc      	bne.n	10001324 <sendDataOverDebug+0x84>
1000132a:	230d      	movs	r3, #13
1000132c:	6013      	str	r3, [r2, #0]
1000132e:	e7d0      	b.n	100012d2 <sendDataOverDebug+0x32>
10001330:	2120      	movs	r1, #32
10001332:	4a08      	ldr	r2, [pc, #32]	@ (10001354 <sendDataOverDebug+0xb4>)
10001334:	6993      	ldr	r3, [r2, #24]
10001336:	4219      	tst	r1, r3
10001338:	d1fc      	bne.n	10001334 <sendDataOverDebug+0x94>
1000133a:	230d      	movs	r3, #13
1000133c:	6013      	str	r3, [r2, #0]
1000133e:	e7d1      	b.n	100012e4 <sendDataOverDebug+0x44>
10001340:	2120      	movs	r1, #32
10001342:	4a04      	ldr	r2, [pc, #16]	@ (10001354 <sendDataOverDebug+0xb4>)
10001344:	6993      	ldr	r3, [r2, #24]
10001346:	4219      	tst	r1, r3
10001348:	d1fc      	bne.n	10001344 <sendDataOverDebug+0xa4>
1000134a:	230d      	movs	r3, #13
1000134c:	6013      	str	r3, [r2, #0]
1000134e:	e7dd      	b.n	1000130c <sendDataOverDebug+0x6c>
10001350:	20000c30 	.word	0x20000c30
10001354:	40038000 	.word	0x40038000

10001358 <initUart>:
10001358:	2196      	movs	r1, #150	@ 0x96
1000135a:	b510      	push	{r4, lr}
1000135c:	4c18      	ldr	r4, [pc, #96]	@ (100013c0 <initUart+0x68>)
1000135e:	0109      	lsls	r1, r1, #4
10001360:	0020      	movs	r0, r4
10001362:	f001 fbed 	bl	10002b40 <uart_init>
10001366:	2102      	movs	r1, #2
10001368:	2000      	movs	r0, #0
1000136a:	f000 fcb3 	bl	10001cd4 <gpio_set_function>
1000136e:	2102      	movs	r1, #2
10001370:	2001      	movs	r0, #1
10001372:	f000 fcaf 	bl	10001cd4 <gpio_set_function>
10001376:	21e1      	movs	r1, #225	@ 0xe1
10001378:	0020      	movs	r0, r4
1000137a:	0249      	lsls	r1, r1, #9
1000137c:	f001 fc70 	bl	10002c60 <uart_set_baudrate>
10001380:	22c0      	movs	r2, #192	@ 0xc0
10001382:	6b23      	ldr	r3, [r4, #48]	@ 0x30
10001384:	0212      	lsls	r2, r2, #8
10001386:	4013      	ands	r3, r2
10001388:	4a0e      	ldr	r2, [pc, #56]	@ (100013c4 <initUart+0x6c>)
1000138a:	0020      	movs	r0, r4
1000138c:	6013      	str	r3, [r2, #0]
1000138e:	2108      	movs	r1, #8
10001390:	2300      	movs	r3, #0
10001392:	2201      	movs	r2, #1
10001394:	f001 fcbe 	bl	10002d14 <uart_set_format>
10001398:	0020      	movs	r0, r4
1000139a:	2100      	movs	r1, #0
1000139c:	f001 fcf6 	bl	10002d8c <uart_set_fifo_enabled>
100013a0:	2014      	movs	r0, #20
100013a2:	4909      	ldr	r1, [pc, #36]	@ (100013c8 <initUart+0x70>)
100013a4:	f000 fd48 	bl	10001e38 <irq_set_exclusive_handler>
100013a8:	2101      	movs	r1, #1
100013aa:	2014      	movs	r0, #20
100013ac:	f000 fd32 	bl	10001e14 <irq_set_enabled>
100013b0:	2350      	movs	r3, #80	@ 0x50
100013b2:	63a3      	str	r3, [r4, #56]	@ 0x38
100013b4:	6b62      	ldr	r2, [r4, #52]	@ 0x34
100013b6:	3b18      	subs	r3, #24
100013b8:	4013      	ands	r3, r2
100013ba:	4a04      	ldr	r2, [pc, #16]	@ (100013cc <initUart+0x74>)
100013bc:	6013      	str	r3, [r2, #0]
100013be:	bd10      	pop	{r4, pc}
100013c0:	40034000 	.word	0x40034000
100013c4:	40035030 	.word	0x40035030
100013c8:	10001071 	.word	0x10001071
100013cc:	40035034 	.word	0x40035034

100013d0 <initUartDebug>:
100013d0:	2196      	movs	r1, #150	@ 0x96
100013d2:	b510      	push	{r4, lr}
100013d4:	4c18      	ldr	r4, [pc, #96]	@ (10001438 <initUartDebug+0x68>)
100013d6:	0109      	lsls	r1, r1, #4
100013d8:	0020      	movs	r0, r4
100013da:	f001 fbb1 	bl	10002b40 <uart_init>
100013de:	2102      	movs	r1, #2
100013e0:	2004      	movs	r0, #4
100013e2:	f000 fc77 	bl	10001cd4 <gpio_set_function>
100013e6:	2102      	movs	r1, #2
100013e8:	2005      	movs	r0, #5
100013ea:	f000 fc73 	bl	10001cd4 <gpio_set_function>
100013ee:	21e1      	movs	r1, #225	@ 0xe1
100013f0:	0020      	movs	r0, r4
100013f2:	0249      	lsls	r1, r1, #9
100013f4:	f001 fc34 	bl	10002c60 <uart_set_baudrate>
100013f8:	22c0      	movs	r2, #192	@ 0xc0
100013fa:	6b23      	ldr	r3, [r4, #48]	@ 0x30
100013fc:	0212      	lsls	r2, r2, #8
100013fe:	4013      	ands	r3, r2
10001400:	4a0e      	ldr	r2, [pc, #56]	@ (1000143c <initUartDebug+0x6c>)
10001402:	0020      	movs	r0, r4
10001404:	6013      	str	r3, [r2, #0]
10001406:	2108      	movs	r1, #8
10001408:	2300      	movs	r3, #0
1000140a:	2201      	movs	r2, #1
1000140c:	f001 fc82 	bl	10002d14 <uart_set_format>
10001410:	0020      	movs	r0, r4
10001412:	2100      	movs	r1, #0
10001414:	f001 fcba 	bl	10002d8c <uart_set_fifo_enabled>
10001418:	2015      	movs	r0, #21
1000141a:	4909      	ldr	r1, [pc, #36]	@ (10001440 <initUartDebug+0x70>)
1000141c:	f000 fd0c 	bl	10001e38 <irq_set_exclusive_handler>
10001420:	2101      	movs	r1, #1
10001422:	2015      	movs	r0, #21
10001424:	f000 fcf6 	bl	10001e14 <irq_set_enabled>
10001428:	2350      	movs	r3, #80	@ 0x50
1000142a:	63a3      	str	r3, [r4, #56]	@ 0x38
1000142c:	6b62      	ldr	r2, [r4, #52]	@ 0x34
1000142e:	3b18      	subs	r3, #24
10001430:	4013      	ands	r3, r2
10001432:	4a04      	ldr	r2, [pc, #16]	@ (10001444 <initUartDebug+0x74>)
10001434:	6013      	str	r3, [r2, #0]
10001436:	bd10      	pop	{r4, pc}
10001438:	40038000 	.word	0x40038000
1000143c:	40039030 	.word	0x40039030
10001440:	100011bd 	.word	0x100011bd
10001444:	40039034 	.word	0x40039034

10001448 <turnLEDon>:
10001448:	4b03      	ldr	r3, [pc, #12]	@ (10001458 <turnLEDon+0x10>)
1000144a:	681a      	ldr	r2, [r3, #0]
1000144c:	2301      	movs	r3, #1
1000144e:	4093      	lsls	r3, r2
10001450:	22d0      	movs	r2, #208	@ 0xd0
10001452:	0612      	lsls	r2, r2, #24
10001454:	6153      	str	r3, [r2, #20]
10001456:	4770      	bx	lr
10001458:	100040e4 	.word	0x100040e4

1000145c <turnLEDoff>:
1000145c:	4b03      	ldr	r3, [pc, #12]	@ (1000146c <turnLEDoff+0x10>)
1000145e:	681a      	ldr	r2, [r3, #0]
10001460:	2301      	movs	r3, #1
10001462:	4093      	lsls	r3, r2
10001464:	22d0      	movs	r2, #208	@ 0xd0
10001466:	0612      	lsls	r2, r2, #24
10001468:	6193      	str	r3, [r2, #24]
1000146a:	4770      	bx	lr
1000146c:	100040e4 	.word	0x100040e4

10001470 <initGSM>:
10001470:	b5f0      	push	{r4, r5, r6, r7, lr}
10001472:	464f      	mov	r7, r9
10001474:	46d6      	mov	lr, sl
10001476:	4646      	mov	r6, r8
10001478:	b5c0      	push	{r6, r7, lr}
1000147a:	4b1d      	ldr	r3, [pc, #116]	@ (100014f0 <initGSM+0x80>)
1000147c:	4699      	mov	r9, r3
1000147e:	781b      	ldrb	r3, [r3, #0]
10001480:	2b00      	cmp	r3, #0
10001482:	d12f      	bne.n	100014e4 <initGSM+0x74>
10001484:	4b1b      	ldr	r3, [pc, #108]	@ (100014f4 <initGSM+0x84>)
10001486:	2700      	movs	r7, #0
10001488:	4698      	mov	r8, r3
1000148a:	2300      	movs	r3, #0
1000148c:	2600      	movs	r6, #0
1000148e:	469a      	mov	sl, r3
10001490:	4d19      	ldr	r5, [pc, #100]	@ (100014f8 <initGSM+0x88>)
10001492:	4643      	mov	r3, r8
10001494:	5998      	ldr	r0, [r3, r6]
10001496:	f7ff fecf 	bl	10001238 <sendDataOverUART>
1000149a:	4643      	mov	r3, r8
1000149c:	5998      	ldr	r0, [r3, r6]
1000149e:	f7ff feff 	bl	100012a0 <sendDataOverDebug>
100014a2:	782b      	ldrb	r3, [r5, #0]
100014a4:	3301      	adds	r3, #1
100014a6:	702b      	strb	r3, [r5, #0]
100014a8:	f7ff fda4 	bl	10000ff4 <checkResponse>
100014ac:	1e04      	subs	r4, r0, #0
100014ae:	d107      	bne.n	100014c0 <initGSM+0x50>
100014b0:	3701      	adds	r7, #1
100014b2:	f7ff fdc1 	bl	10001038 <clear_buffer>
100014b6:	702c      	strb	r4, [r5, #0]
100014b8:	2f04      	cmp	r7, #4
100014ba:	d013      	beq.n	100014e4 <initGSM+0x74>
100014bc:	00be      	lsls	r6, r7, #2
100014be:	e7e8      	b.n	10001492 <initGSM+0x22>
100014c0:	f7ff fdba 	bl	10001038 <clear_buffer>
100014c4:	782b      	ldrb	r3, [r5, #0]
100014c6:	2b04      	cmp	r3, #4
100014c8:	d9e3      	bls.n	10001492 <initGSM+0x22>
100014ca:	464b      	mov	r3, r9
100014cc:	464a      	mov	r2, r9
100014ce:	781b      	ldrb	r3, [r3, #0]
100014d0:	2000      	movs	r0, #0
100014d2:	3301      	adds	r3, #1
100014d4:	7013      	strb	r3, [r2, #0]
100014d6:	4653      	mov	r3, sl
100014d8:	3701      	adds	r7, #1
100014da:	702b      	strb	r3, [r5, #0]
100014dc:	f7ff fb28 	bl	10000b30 <reset_module>
100014e0:	2f04      	cmp	r7, #4
100014e2:	d1eb      	bne.n	100014bc <initGSM+0x4c>
100014e4:	bce0      	pop	{r5, r6, r7}
100014e6:	46ba      	mov	sl, r7
100014e8:	46b1      	mov	r9, r6
100014ea:	46a8      	mov	r8, r5
100014ec:	bdf0      	pop	{r4, r5, r6, r7, pc}
100014ee:	46c0      	nop			@ (mov r8, r8)
100014f0:	20000c40 	.word	0x20000c40
100014f4:	200001f8 	.word	0x200001f8
100014f8:	20000c3d 	.word	0x20000c3d

100014fc <extract_message>:
100014fc:	b5f0      	push	{r4, r5, r6, r7, lr}
100014fe:	46c6      	mov	lr, r8
10001500:	4c26      	ldr	r4, [pc, #152]	@ (1000159c <extract_message+0xa0>)
10001502:	4b27      	ldr	r3, [pc, #156]	@ (100015a0 <extract_message+0xa4>)
10001504:	b500      	push	{lr}
10001506:	0020      	movs	r0, r4
10001508:	2500      	movs	r5, #0
1000150a:	2700      	movs	r7, #0
1000150c:	2600      	movs	r6, #0
1000150e:	4698      	mov	r8, r3
10001510:	f000 f8d0 	bl	100016b4 <strlen_mod>
10001514:	42a8      	cmp	r0, r5
10001516:	d90d      	bls.n	10001534 <extract_message+0x38>
10001518:	5763      	ldrsb	r3, [r4, r5]
1000151a:	2b0a      	cmp	r3, #10
1000151c:	d038      	beq.n	10001590 <extract_message+0x94>
1000151e:	2f02      	cmp	r7, #2
10001520:	d102      	bne.n	10001528 <extract_message+0x2c>
10001522:	4642      	mov	r2, r8
10001524:	5593      	strb	r3, [r2, r6]
10001526:	3601      	adds	r6, #1
10001528:	3501      	adds	r5, #1
1000152a:	0020      	movs	r0, r4
1000152c:	f000 f8c2 	bl	100016b4 <strlen_mod>
10001530:	42a8      	cmp	r0, r5
10001532:	d8f1      	bhi.n	10001518 <extract_message+0x1c>
10001534:	2300      	movs	r3, #0
10001536:	4446      	add	r6, r8
10001538:	20c8      	movs	r0, #200	@ 0xc8
1000153a:	3e01      	subs	r6, #1
1000153c:	7033      	strb	r3, [r6, #0]
1000153e:	f001 f913 	bl	10002768 <sleep_ms>
10001542:	4640      	mov	r0, r8
10001544:	f7ff feac 	bl	100012a0 <sendDataOverDebug>
10001548:	4b16      	ldr	r3, [pc, #88]	@ (100015a4 <extract_message+0xa8>)
1000154a:	0020      	movs	r0, r4
1000154c:	2500      	movs	r5, #0
1000154e:	2600      	movs	r6, #0
10001550:	2700      	movs	r7, #0
10001552:	4698      	mov	r8, r3
10001554:	f002 fa92 	bl	10003a7c <strlen>
10001558:	42a8      	cmp	r0, r5
1000155a:	d90d      	bls.n	10001578 <extract_message+0x7c>
1000155c:	5763      	ldrsb	r3, [r4, r5]
1000155e:	2b22      	cmp	r3, #34	@ 0x22
10001560:	d019      	beq.n	10001596 <extract_message+0x9a>
10001562:	2e03      	cmp	r6, #3
10001564:	d102      	bne.n	1000156c <extract_message+0x70>
10001566:	4642      	mov	r2, r8
10001568:	55d3      	strb	r3, [r2, r7]
1000156a:	3701      	adds	r7, #1
1000156c:	3501      	adds	r5, #1
1000156e:	0020      	movs	r0, r4
10001570:	f002 fa84 	bl	10003a7c <strlen>
10001574:	42a8      	cmp	r0, r5
10001576:	d8f1      	bhi.n	1000155c <extract_message+0x60>
10001578:	4642      	mov	r2, r8
1000157a:	2300      	movs	r3, #0
1000157c:	4640      	mov	r0, r8
1000157e:	55d3      	strb	r3, [r2, r7]
10001580:	f7ff fe8e 	bl	100012a0 <sendDataOverDebug>
10001584:	20c8      	movs	r0, #200	@ 0xc8
10001586:	f001 f8ef 	bl	10002768 <sleep_ms>
1000158a:	bc80      	pop	{r7}
1000158c:	46b8      	mov	r8, r7
1000158e:	bdf0      	pop	{r4, r5, r6, r7, pc}
10001590:	3701      	adds	r7, #1
10001592:	3501      	adds	r5, #1
10001594:	e7c9      	b.n	1000152a <extract_message+0x2e>
10001596:	3601      	adds	r6, #1
10001598:	3501      	adds	r5, #1
1000159a:	e7e8      	b.n	1000156e <extract_message+0x72>
1000159c:	20000840 	.word	0x20000840
100015a0:	200006fc 	.word	0x200006fc
100015a4:	20000730 	.word	0x20000730

100015a8 <read_message>:
100015a8:	b510      	push	{r4, lr}
100015aa:	0004      	movs	r4, r0
100015ac:	f7ff fd44 	bl	10001038 <clear_buffer>
100015b0:	4b12      	ldr	r3, [pc, #72]	@ (100015fc <read_message+0x54>)
100015b2:	00a4      	lsls	r4, r4, #2
100015b4:	58e1      	ldr	r1, [r4, r3]
100015b6:	4b12      	ldr	r3, [pc, #72]	@ (10001600 <read_message+0x58>)
100015b8:	6818      	ldr	r0, [r3, #0]
100015ba:	f000 f82d 	bl	10001618 <join_strings>
100015be:	4911      	ldr	r1, [pc, #68]	@ (10001604 <read_message+0x5c>)
100015c0:	4811      	ldr	r0, [pc, #68]	@ (10001608 <read_message+0x60>)
100015c2:	f000 f829 	bl	10001618 <join_strings>
100015c6:	4c11      	ldr	r4, [pc, #68]	@ (1000160c <read_message+0x64>)
100015c8:	0020      	movs	r0, r4
100015ca:	f7ff fe35 	bl	10001238 <sendDataOverUART>
100015ce:	20fa      	movs	r0, #250	@ 0xfa
100015d0:	0080      	lsls	r0, r0, #2
100015d2:	f001 f8c9 	bl	10002768 <sleep_ms>
100015d6:	2100      	movs	r1, #0
100015d8:	22c8      	movs	r2, #200	@ 0xc8
100015da:	0020      	movs	r0, r4
100015dc:	f001 ff70 	bl	100034c0 <__wrap_memset>
100015e0:	4a0b      	ldr	r2, [pc, #44]	@ (10001610 <read_message+0x68>)
100015e2:	6813      	ldr	r3, [r2, #0]
100015e4:	3b01      	subs	r3, #1
100015e6:	6013      	str	r3, [r2, #0]
100015e8:	4a0a      	ldr	r2, [pc, #40]	@ (10001614 <read_message+0x6c>)
100015ea:	7813      	ldrb	r3, [r2, #0]
100015ec:	3301      	adds	r3, #1
100015ee:	7013      	strb	r3, [r2, #0]
100015f0:	f7ff ff84 	bl	100014fc <extract_message>
100015f4:	f7ff fd20 	bl	10001038 <clear_buffer>
100015f8:	bd10      	pop	{r4, pc}
100015fa:	46c0      	nop			@ (mov r8, r8)
100015fc:	200001cc 	.word	0x200001cc
10001600:	200001c8 	.word	0x200001c8
10001604:	10003e64 	.word	0x10003e64
10001608:	10003d5c 	.word	0x10003d5c
1000160c:	20000744 	.word	0x20000744
10001610:	20000814 	.word	0x20000814
10001614:	20000c44 	.word	0x20000c44

10001618 <join_strings>:
10001618:	b5f8      	push	{r3, r4, r5, r6, r7, lr}
1000161a:	4647      	mov	r7, r8
1000161c:	46ce      	mov	lr, r9
1000161e:	2300      	movs	r3, #0
10001620:	b580      	push	{r7, lr}
10001622:	4e23      	ldr	r6, [pc, #140]	@ (100016b0 <join_strings+0x98>)
10001624:	0007      	movs	r7, r0
10001626:	56f3      	ldrsb	r3, [r6, r3]
10001628:	000d      	movs	r5, r1
1000162a:	2b00      	cmp	r3, #0
1000162c:	d03e      	beq.n	100016ac <join_strings+0x94>
1000162e:	1c70      	adds	r0, r6, #1
10001630:	f002 fa24 	bl	10003a7c <strlen>
10001634:	3001      	adds	r0, #1
10001636:	4680      	mov	r8, r0
10001638:	1c7b      	adds	r3, r7, #1
1000163a:	2400      	movs	r4, #0
1000163c:	4699      	mov	r9, r3
1000163e:	44b0      	add	r8, r6
10001640:	e009      	b.n	10001656 <join_strings+0x3e>
10001642:	4648      	mov	r0, r9
10001644:	f002 fa1a 	bl	10003a7c <strlen>
10001648:	3001      	adds	r0, #1
1000164a:	4284      	cmp	r4, r0
1000164c:	d207      	bcs.n	1000165e <join_strings+0x46>
1000164e:	4642      	mov	r2, r8
10001650:	5d3b      	ldrb	r3, [r7, r4]
10001652:	5513      	strb	r3, [r2, r4]
10001654:	3401      	adds	r4, #1
10001656:	2300      	movs	r3, #0
10001658:	56fb      	ldrsb	r3, [r7, r3]
1000165a:	2b00      	cmp	r3, #0
1000165c:	d1f1      	bne.n	10001642 <join_strings+0x2a>
1000165e:	2300      	movs	r3, #0
10001660:	56f3      	ldrsb	r3, [r6, r3]
10001662:	2b00      	cmp	r3, #0
10001664:	d01f      	beq.n	100016a6 <join_strings+0x8e>
10001666:	1c70      	adds	r0, r6, #1
10001668:	f002 fa08 	bl	10003a7c <strlen>
1000166c:	1c43      	adds	r3, r0, #1
1000166e:	4699      	mov	r9, r3
10001670:	1c6b      	adds	r3, r5, #1
10001672:	4698      	mov	r8, r3
10001674:	464b      	mov	r3, r9
10001676:	2400      	movs	r4, #0
10001678:	18f7      	adds	r7, r6, r3
1000167a:	e008      	b.n	1000168e <join_strings+0x76>
1000167c:	4640      	mov	r0, r8
1000167e:	f002 f9fd 	bl	10003a7c <strlen>
10001682:	3001      	adds	r0, #1
10001684:	4284      	cmp	r4, r0
10001686:	d206      	bcs.n	10001696 <join_strings+0x7e>
10001688:	5d2b      	ldrb	r3, [r5, r4]
1000168a:	553b      	strb	r3, [r7, r4]
1000168c:	3401      	adds	r4, #1
1000168e:	2300      	movs	r3, #0
10001690:	56eb      	ldrsb	r3, [r5, r3]
10001692:	2b00      	cmp	r3, #0
10001694:	d1f2      	bne.n	1000167c <join_strings+0x64>
10001696:	464a      	mov	r2, r9
10001698:	2300      	movs	r3, #0
1000169a:	1936      	adds	r6, r6, r4
1000169c:	54b3      	strb	r3, [r6, r2]
1000169e:	bcc0      	pop	{r6, r7}
100016a0:	46b9      	mov	r9, r7
100016a2:	46b0      	mov	r8, r6
100016a4:	bdf8      	pop	{r3, r4, r5, r6, r7, pc}
100016a6:	2300      	movs	r3, #0
100016a8:	4699      	mov	r9, r3
100016aa:	e7e1      	b.n	10001670 <join_strings+0x58>
100016ac:	2000      	movs	r0, #0
100016ae:	e7c2      	b.n	10001636 <join_strings+0x1e>
100016b0:	20000744 	.word	0x20000744

100016b4 <strlen_mod>:
100016b4:	2300      	movs	r3, #0
100016b6:	b510      	push	{r4, lr}
100016b8:	56c3      	ldrsb	r3, [r0, r3]
100016ba:	2b00      	cmp	r3, #0
100016bc:	d004      	beq.n	100016c8 <strlen_mod+0x14>
100016be:	3001      	adds	r0, #1
100016c0:	f002 f9dc 	bl	10003a7c <strlen>
100016c4:	3001      	adds	r0, #1
100016c6:	bd10      	pop	{r4, pc}
100016c8:	2000      	movs	r0, #0
100016ca:	e7fc      	b.n	100016c6 <strlen_mod+0x12>

100016cc <strcpy_mod>:
100016cc:	2200      	movs	r2, #0
100016ce:	568a      	ldrsb	r2, [r1, r2]
100016d0:	2a00      	cmp	r2, #0
100016d2:	d006      	beq.n	100016e2 <strcpy_mod+0x16>
100016d4:	2300      	movs	r3, #0
100016d6:	54c2      	strb	r2, [r0, r3]
100016d8:	3301      	adds	r3, #1
100016da:	56ca      	ldrsb	r2, [r1, r3]
100016dc:	2a00      	cmp	r2, #0
100016de:	d1fa      	bne.n	100016d6 <strcpy_mod+0xa>
100016e0:	18c0      	adds	r0, r0, r3
100016e2:	2300      	movs	r3, #0
100016e4:	7003      	strb	r3, [r0, #0]
100016e6:	4770      	bx	lr

100016e8 <strcmp_mod>:
100016e8:	b5f0      	push	{r4, r5, r6, r7, lr}
100016ea:	46c6      	mov	lr, r8
100016ec:	2300      	movs	r3, #0
100016ee:	2400      	movs	r4, #0
100016f0:	b500      	push	{lr}
100016f2:	56c3      	ldrsb	r3, [r0, r3]
100016f4:	0005      	movs	r5, r0
100016f6:	000e      	movs	r6, r1
100016f8:	570c      	ldrsb	r4, [r1, r4]
100016fa:	2b00      	cmp	r3, #0
100016fc:	d01d      	beq.n	1000173a <strcmp_mod+0x52>
100016fe:	1c47      	adds	r7, r0, #1
10001700:	0038      	movs	r0, r7
10001702:	f002 f9bb 	bl	10003a7c <strlen>
10001706:	4680      	mov	r8, r0
10001708:	2c00      	cmp	r4, #0
1000170a:	d011      	beq.n	10001730 <strcmp_mod+0x48>
1000170c:	1c70      	adds	r0, r6, #1
1000170e:	f002 f9b5 	bl	10003a7c <strlen>
10001712:	4580      	cmp	r8, r0
10001714:	d10c      	bne.n	10001730 <strcmp_mod+0x48>
10001716:	2400      	movs	r4, #0
10001718:	e000      	b.n	1000171c <strcmp_mod+0x34>
1000171a:	3401      	adds	r4, #1
1000171c:	0038      	movs	r0, r7
1000171e:	f002 f9ad 	bl	10003a7c <strlen>
10001722:	3001      	adds	r0, #1
10001724:	42a0      	cmp	r0, r4
10001726:	d90c      	bls.n	10001742 <strcmp_mod+0x5a>
10001728:	572a      	ldrsb	r2, [r5, r4]
1000172a:	5733      	ldrsb	r3, [r6, r4]
1000172c:	429a      	cmp	r2, r3
1000172e:	d0f4      	beq.n	1000171a <strcmp_mod+0x32>
10001730:	2001      	movs	r0, #1
10001732:	4240      	negs	r0, r0
10001734:	bc80      	pop	{r7}
10001736:	46b8      	mov	r8, r7
10001738:	bdf0      	pop	{r4, r5, r6, r7, pc}
1000173a:	4260      	negs	r0, r4
1000173c:	4160      	adcs	r0, r4
1000173e:	3801      	subs	r0, #1
10001740:	e7f8      	b.n	10001734 <strcmp_mod+0x4c>
10001742:	2000      	movs	r0, #0
10001744:	e7f6      	b.n	10001734 <strcmp_mod+0x4c>
10001746:	46c0      	nop			@ (mov r8, r8)

10001748 <strstr_mod>:
10001748:	b5f0      	push	{r4, r5, r6, r7, lr}
1000174a:	46c6      	mov	lr, r8
1000174c:	2400      	movs	r4, #0
1000174e:	2700      	movs	r7, #0
10001750:	b500      	push	{lr}
10001752:	5704      	ldrsb	r4, [r0, r4]
10001754:	0006      	movs	r6, r0
10001756:	4688      	mov	r8, r1
10001758:	57cf      	ldrsb	r7, [r1, r7]
1000175a:	2c00      	cmp	r4, #0
1000175c:	d025      	beq.n	100017aa <strstr_mod+0x62>
1000175e:	3001      	adds	r0, #1
10001760:	f002 f98c 	bl	10003a7c <strlen>
10001764:	3001      	adds	r0, #1
10001766:	b245      	sxtb	r5, r0
10001768:	2f00      	cmp	r7, #0
1000176a:	d02c      	beq.n	100017c6 <strstr_mod+0x7e>
1000176c:	4643      	mov	r3, r8
1000176e:	1c58      	adds	r0, r3, #1
10001770:	f002 f984 	bl	10003a7c <strlen>
10001774:	3001      	adds	r0, #1
10001776:	b240      	sxtb	r0, r0
10001778:	2d00      	cmp	r5, #0
1000177a:	dd16      	ble.n	100017aa <strstr_mod+0x62>
1000177c:	2300      	movs	r3, #0
1000177e:	e005      	b.n	1000178c <strstr_mod+0x44>
10001780:	3301      	adds	r3, #1
10001782:	b2da      	uxtb	r2, r3
10001784:	b25b      	sxtb	r3, r3
10001786:	429d      	cmp	r5, r3
10001788:	dd0f      	ble.n	100017aa <strstr_mod+0x62>
1000178a:	56b4      	ldrsb	r4, [r6, r2]
1000178c:	42bc      	cmp	r4, r7
1000178e:	d1f7      	bne.n	10001780 <strstr_mod+0x38>
10001790:	2800      	cmp	r0, #0
10001792:	dd1a      	ble.n	100017ca <strstr_mod+0x82>
10001794:	4641      	mov	r1, r8
10001796:	46bc      	mov	ip, r7
10001798:	2200      	movs	r2, #0
1000179a:	2400      	movs	r4, #0
1000179c:	570c      	ldrsb	r4, [r1, r4]
1000179e:	4564      	cmp	r4, ip
100017a0:	d007      	beq.n	100017b2 <strstr_mod+0x6a>
100017a2:	4282      	cmp	r2, r0
100017a4:	d1ec      	bne.n	10001780 <strstr_mod+0x38>
100017a6:	2000      	movs	r0, #0
100017a8:	e000      	b.n	100017ac <strstr_mod+0x64>
100017aa:	2001      	movs	r0, #1
100017ac:	bc80      	pop	{r7}
100017ae:	46b8      	mov	r8, r7
100017b0:	bdf0      	pop	{r4, r5, r6, r7, pc}
100017b2:	1c54      	adds	r4, r2, #1
100017b4:	b262      	sxtb	r2, r4
100017b6:	18e4      	adds	r4, r4, r3
100017b8:	b264      	sxtb	r4, r4
100017ba:	3101      	adds	r1, #1
100017bc:	4282      	cmp	r2, r0
100017be:	d0f2      	beq.n	100017a6 <strstr_mod+0x5e>
100017c0:	5734      	ldrsb	r4, [r6, r4]
100017c2:	46a4      	mov	ip, r4
100017c4:	e7e9      	b.n	1000179a <strstr_mod+0x52>
100017c6:	2000      	movs	r0, #0
100017c8:	e7d6      	b.n	10001778 <strstr_mod+0x30>
100017ca:	2200      	movs	r2, #0
100017cc:	e7e9      	b.n	100017a2 <strstr_mod+0x5a>
100017ce:	46c0      	nop			@ (mov r8, r8)

100017d0 <check_gps_status.part.0>:
100017d0:	b5f0      	push	{r4, r5, r6, r7, lr}
100017d2:	2200      	movs	r2, #0
100017d4:	464e      	mov	r6, r9
100017d6:	4645      	mov	r5, r8
100017d8:	46de      	mov	lr, fp
100017da:	4657      	mov	r7, sl
100017dc:	4690      	mov	r8, r2
100017de:	b5e0      	push	{r5, r6, r7, lr}
100017e0:	4a9c      	ldr	r2, [pc, #624]	@ (10001a54 <check_gps_status.part.0+0x284>)
100017e2:	b085      	sub	sp, #20
100017e4:	4691      	mov	r9, r2
100017e6:	4a9c      	ldr	r2, [pc, #624]	@ (10001a58 <check_gps_status.part.0+0x288>)
100017e8:	4e9c      	ldr	r6, [pc, #624]	@ (10001a5c <check_gps_status.part.0+0x28c>)
100017ea:	4693      	mov	fp, r2
100017ec:	4a9c      	ldr	r2, [pc, #624]	@ (10001a60 <check_gps_status.part.0+0x290>)
100017ee:	7833      	ldrb	r3, [r6, #0]
100017f0:	9200      	str	r2, [sp, #0]
100017f2:	4a9c      	ldr	r2, [pc, #624]	@ (10001a64 <check_gps_status.part.0+0x294>)
100017f4:	4d9c      	ldr	r5, [pc, #624]	@ (10001a68 <check_gps_status.part.0+0x298>)
100017f6:	9202      	str	r2, [sp, #8]
100017f8:	4a9c      	ldr	r2, [pc, #624]	@ (10001a6c <check_gps_status.part.0+0x29c>)
100017fa:	9203      	str	r2, [sp, #12]
100017fc:	4a9c      	ldr	r2, [pc, #624]	@ (10001a70 <check_gps_status.part.0+0x2a0>)
100017fe:	9201      	str	r2, [sp, #4]
10001800:	2b04      	cmp	r3, #4
10001802:	d800      	bhi.n	10001806 <check_gps_status.part.0+0x36>
10001804:	e0b7      	b.n	10001976 <check_gps_status.part.0+0x1a6>
10001806:	2300      	movs	r3, #0
10001808:	4647      	mov	r7, r8
1000180a:	469a      	mov	sl, r3
1000180c:	46b0      	mov	r8, r6
1000180e:	464e      	mov	r6, r9
10001810:	2300      	movs	r3, #0
10001812:	4699      	mov	r9, r3
10001814:	0033      	movs	r3, r6
10001816:	0028      	movs	r0, r5
10001818:	002c      	movs	r4, r5
1000181a:	464e      	mov	r6, r9
1000181c:	4699      	mov	r9, r3
1000181e:	f7ff ff49 	bl	100016b4 <strlen_mod>
10001822:	1b63      	subs	r3, r4, r5
10001824:	4298      	cmp	r0, r3
10001826:	d916      	bls.n	10001856 <check_gps_status.part.0+0x86>
10001828:	2300      	movs	r3, #0
1000182a:	56e3      	ldrsb	r3, [r4, r3]
1000182c:	2b3a      	cmp	r3, #58	@ 0x3a
1000182e:	d100      	bne.n	10001832 <check_gps_status.part.0+0x62>
10001830:	e0b8      	b.n	100019a4 <check_gps_status.part.0+0x1d4>
10001832:	2f00      	cmp	r7, #0
10001834:	d008      	beq.n	10001848 <check_gps_status.part.0+0x78>
10001836:	2301      	movs	r3, #1
10001838:	56e3      	ldrsb	r3, [r4, r3]
1000183a:	4649      	mov	r1, r9
1000183c:	1c72      	adds	r2, r6, #1
1000183e:	2b78      	cmp	r3, #120	@ 0x78
10001840:	d100      	bne.n	10001844 <check_gps_status.part.0+0x74>
10001842:	e0b9      	b.n	100019b8 <check_gps_status.part.0+0x1e8>
10001844:	558b      	strb	r3, [r1, r6]
10001846:	0016      	movs	r6, r2
10001848:	3401      	adds	r4, #1
1000184a:	0028      	movs	r0, r5
1000184c:	f7ff ff32 	bl	100016b4 <strlen_mod>
10001850:	1b63      	subs	r3, r4, r5
10001852:	4298      	cmp	r0, r3
10001854:	d8e8      	bhi.n	10001828 <check_gps_status.part.0+0x58>
10001856:	464b      	mov	r3, r9
10001858:	46b1      	mov	r9, r6
1000185a:	001e      	movs	r6, r3
1000185c:	464b      	mov	r3, r9
1000185e:	4652      	mov	r2, sl
10001860:	0030      	movs	r0, r6
10001862:	54f2      	strb	r2, [r6, r3]
10001864:	f7ff fd1c 	bl	100012a0 <sendDataOverDebug>
10001868:	0030      	movs	r0, r6
1000186a:	9900      	ldr	r1, [sp, #0]
1000186c:	f002 f8c2 	bl	100039f4 <strcmp>
10001870:	2800      	cmp	r0, #0
10001872:	d100      	bne.n	10001876 <check_gps_status.part.0+0xa6>
10001874:	e0c6      	b.n	10001a04 <check_gps_status.part.0+0x234>
10001876:	0030      	movs	r0, r6
10001878:	497e      	ldr	r1, [pc, #504]	@ (10001a74 <check_gps_status.part.0+0x2a4>)
1000187a:	f002 f8bb 	bl	100039f4 <strcmp>
1000187e:	2800      	cmp	r0, #0
10001880:	d100      	bne.n	10001884 <check_gps_status.part.0+0xb4>
10001882:	e0d8      	b.n	10001a36 <check_gps_status.part.0+0x266>
10001884:	f7ff fbd8 	bl	10001038 <clear_buffer>
10001888:	465b      	mov	r3, fp
1000188a:	465a      	mov	r2, fp
1000188c:	781b      	ldrb	r3, [r3, #0]
1000188e:	487a      	ldr	r0, [pc, #488]	@ (10001a78 <check_gps_status.part.0+0x2a8>)
10001890:	3301      	adds	r3, #1
10001892:	7013      	strb	r3, [r2, #0]
10001894:	f000 ff68 	bl	10002768 <sleep_ms>
10001898:	465b      	mov	r3, fp
1000189a:	781b      	ldrb	r3, [r3, #0]
1000189c:	2b18      	cmp	r3, #24
1000189e:	d800      	bhi.n	100018a2 <check_gps_status.part.0+0xd2>
100018a0:	e085      	b.n	100019ae <check_gps_status.part.0+0x1de>
100018a2:	9a01      	ldr	r2, [sp, #4]
100018a4:	4c75      	ldr	r4, [pc, #468]	@ (10001a7c <check_gps_status.part.0+0x2ac>)
100018a6:	7813      	ldrb	r3, [r2, #0]
100018a8:	3301      	adds	r3, #1
100018aa:	b2db      	uxtb	r3, r3
100018ac:	7013      	strb	r3, [r2, #0]
100018ae:	7822      	ldrb	r2, [r4, #0]
100018b0:	2b01      	cmp	r3, #1
100018b2:	d97a      	bls.n	100019aa <check_gps_status.part.0+0x1da>
100018b4:	2a01      	cmp	r2, #1
100018b6:	d933      	bls.n	10001920 <check_gps_status.part.0+0x150>
100018b8:	4a71      	ldr	r2, [pc, #452]	@ (10001a80 <check_gps_status.part.0+0x2b0>)
100018ba:	7813      	ldrb	r3, [r2, #0]
100018bc:	3301      	adds	r3, #1
100018be:	b2db      	uxtb	r3, r3
100018c0:	7013      	strb	r3, [r2, #0]
100018c2:	2b03      	cmp	r3, #3
100018c4:	d100      	bne.n	100018c8 <check_gps_status.part.0+0xf8>
100018c6:	e0b9      	b.n	10001a3c <check_gps_status.part.0+0x26c>
100018c8:	496e      	ldr	r1, [pc, #440]	@ (10001a84 <check_gps_status.part.0+0x2b4>)
100018ca:	9802      	ldr	r0, [sp, #8]
100018cc:	f7fe fdf6 	bl	100004bc <response_back>
100018d0:	4643      	mov	r3, r8
100018d2:	781b      	ldrb	r3, [r3, #0]
100018d4:	2b04      	cmp	r3, #4
100018d6:	d876      	bhi.n	100019c6 <check_gps_status.part.0+0x1f6>
100018d8:	46b1      	mov	r9, r6
100018da:	46a2      	mov	sl, r4
100018dc:	4646      	mov	r6, r8
100018de:	46b8      	mov	r8, r7
100018e0:	4f69      	ldr	r7, [pc, #420]	@ (10001a88 <check_gps_status.part.0+0x2b8>)
100018e2:	e008      	b.n	100018f6 <check_gps_status.part.0+0x126>
100018e4:	f7ff fba8 	bl	10001038 <clear_buffer>
100018e8:	20fa      	movs	r0, #250	@ 0xfa
100018ea:	0040      	lsls	r0, r0, #1
100018ec:	f000 ff3c 	bl	10002768 <sleep_ms>
100018f0:	7833      	ldrb	r3, [r6, #0]
100018f2:	2b04      	cmp	r3, #4
100018f4:	d86b      	bhi.n	100019ce <check_gps_status.part.0+0x1fe>
100018f6:	6838      	ldr	r0, [r7, #0]
100018f8:	f7ff fc9e 	bl	10001238 <sendDataOverUART>
100018fc:	7833      	ldrb	r3, [r6, #0]
100018fe:	3301      	adds	r3, #1
10001900:	7033      	strb	r3, [r6, #0]
10001902:	f7ff fb77 	bl	10000ff4 <checkResponse>
10001906:	2800      	cmp	r0, #0
10001908:	d1ec      	bne.n	100018e4 <check_gps_status.part.0+0x114>
1000190a:	0004      	movs	r4, r0
1000190c:	f7ff fb94 	bl	10001038 <clear_buffer>
10001910:	4653      	mov	r3, sl
10001912:	701c      	strb	r4, [r3, #0]
10001914:	465b      	mov	r3, fp
10001916:	7034      	strb	r4, [r6, #0]
10001918:	701c      	strb	r4, [r3, #0]
1000191a:	464f      	mov	r7, r9
1000191c:	9c03      	ldr	r4, [sp, #12]
1000191e:	e02c      	b.n	1000197a <check_gps_status.part.0+0x1aa>
10001920:	495a      	ldr	r1, [pc, #360]	@ (10001a8c <check_gps_status.part.0+0x2bc>)
10001922:	9802      	ldr	r0, [sp, #8]
10001924:	f7fe fdca 	bl	100004bc <response_back>
10001928:	4643      	mov	r3, r8
1000192a:	781b      	ldrb	r3, [r3, #0]
1000192c:	2b04      	cmp	r3, #4
1000192e:	d84a      	bhi.n	100019c6 <check_gps_status.part.0+0x1f6>
10001930:	46b1      	mov	r9, r6
10001932:	46a2      	mov	sl, r4
10001934:	4646      	mov	r6, r8
10001936:	46b8      	mov	r8, r7
10001938:	4f55      	ldr	r7, [pc, #340]	@ (10001a90 <check_gps_status.part.0+0x2c0>)
1000193a:	e008      	b.n	1000194e <check_gps_status.part.0+0x17e>
1000193c:	f7ff fb7c 	bl	10001038 <clear_buffer>
10001940:	20fa      	movs	r0, #250	@ 0xfa
10001942:	0040      	lsls	r0, r0, #1
10001944:	f000 ff10 	bl	10002768 <sleep_ms>
10001948:	7833      	ldrb	r3, [r6, #0]
1000194a:	2b04      	cmp	r3, #4
1000194c:	d854      	bhi.n	100019f8 <check_gps_status.part.0+0x228>
1000194e:	6838      	ldr	r0, [r7, #0]
10001950:	f7ff fc72 	bl	10001238 <sendDataOverUART>
10001954:	7833      	ldrb	r3, [r6, #0]
10001956:	3301      	adds	r3, #1
10001958:	7033      	strb	r3, [r6, #0]
1000195a:	f7ff fb4b 	bl	10000ff4 <checkResponse>
1000195e:	2800      	cmp	r0, #0
10001960:	d1ec      	bne.n	1000193c <check_gps_status.part.0+0x16c>
10001962:	0004      	movs	r4, r0
10001964:	f7ff fb68 	bl	10001038 <clear_buffer>
10001968:	4652      	mov	r2, sl
1000196a:	7813      	ldrb	r3, [r2, #0]
1000196c:	7034      	strb	r4, [r6, #0]
1000196e:	3301      	adds	r3, #1
10001970:	7013      	strb	r3, [r2, #0]
10001972:	465b      	mov	r3, fp
10001974:	701c      	strb	r4, [r3, #0]
10001976:	464f      	mov	r7, r9
10001978:	9c03      	ldr	r4, [sp, #12]
1000197a:	2232      	movs	r2, #50	@ 0x32
1000197c:	2100      	movs	r1, #0
1000197e:	0038      	movs	r0, r7
10001980:	f001 fd9e 	bl	100034c0 <__wrap_memset>
10001984:	6820      	ldr	r0, [r4, #0]
10001986:	f7ff fc57 	bl	10001238 <sendDataOverUART>
1000198a:	6820      	ldr	r0, [r4, #0]
1000198c:	f7ff fc88 	bl	100012a0 <sendDataOverDebug>
10001990:	7833      	ldrb	r3, [r6, #0]
10001992:	3301      	adds	r3, #1
10001994:	7033      	strb	r3, [r6, #0]
10001996:	f7ff fb2d 	bl	10000ff4 <checkResponse>
1000199a:	2800      	cmp	r0, #0
1000199c:	d11d      	bne.n	100019da <check_gps_status.part.0+0x20a>
1000199e:	46b9      	mov	r9, r7
100019a0:	7030      	strb	r0, [r6, #0]
100019a2:	e730      	b.n	10001806 <check_gps_status.part.0+0x36>
100019a4:	3701      	adds	r7, #1
100019a6:	3401      	adds	r4, #1
100019a8:	e74f      	b.n	1000184a <check_gps_status.part.0+0x7a>
100019aa:	2a00      	cmp	r2, #0
100019ac:	d182      	bne.n	100018b4 <check_gps_status.part.0+0xe4>
100019ae:	46b1      	mov	r9, r6
100019b0:	4646      	mov	r6, r8
100019b2:	46b8      	mov	r8, r7
100019b4:	7833      	ldrb	r3, [r6, #0]
100019b6:	e723      	b.n	10001800 <check_gps_status.part.0+0x30>
100019b8:	46b1      	mov	r9, r6
100019ba:	000e      	movs	r6, r1
100019bc:	4649      	mov	r1, r9
100019be:	2700      	movs	r7, #0
100019c0:	4691      	mov	r9, r2
100019c2:	5473      	strb	r3, [r6, r1]
100019c4:	e74a      	b.n	1000185c <check_gps_status.part.0+0x8c>
100019c6:	2300      	movs	r3, #0
100019c8:	465a      	mov	r2, fp
100019ca:	7013      	strb	r3, [r2, #0]
100019cc:	e720      	b.n	10001810 <check_gps_status.part.0+0x40>
100019ce:	2000      	movs	r0, #0
100019d0:	f7ff f8ae 	bl	10000b30 <reset_module>
100019d4:	2300      	movs	r3, #0
100019d6:	7033      	strb	r3, [r6, #0]
100019d8:	e78d      	b.n	100018f6 <check_gps_status.part.0+0x126>
100019da:	f7ff fb2d 	bl	10001038 <clear_buffer>
100019de:	20fa      	movs	r0, #250	@ 0xfa
100019e0:	0040      	lsls	r0, r0, #1
100019e2:	f000 fec1 	bl	10002768 <sleep_ms>
100019e6:	7833      	ldrb	r3, [r6, #0]
100019e8:	2b04      	cmp	r3, #4
100019ea:	d9c6      	bls.n	1000197a <check_gps_status.part.0+0x1aa>
100019ec:	2000      	movs	r0, #0
100019ee:	f7ff f89f 	bl	10000b30 <reset_module>
100019f2:	2300      	movs	r3, #0
100019f4:	7033      	strb	r3, [r6, #0]
100019f6:	e7c0      	b.n	1000197a <check_gps_status.part.0+0x1aa>
100019f8:	2000      	movs	r0, #0
100019fa:	f7ff f899 	bl	10000b30 <reset_module>
100019fe:	2300      	movs	r3, #0
10001a00:	7033      	strb	r3, [r6, #0]
10001a02:	e7a4      	b.n	1000194e <check_gps_status.part.0+0x17e>
10001a04:	46b1      	mov	r9, r6
10001a06:	4923      	ldr	r1, [pc, #140]	@ (10001a94 <check_gps_status.part.0+0x2c4>)
10001a08:	9802      	ldr	r0, [sp, #8]
10001a0a:	f7fe fd57 	bl	100004bc <response_back>
10001a0e:	2232      	movs	r2, #50	@ 0x32
10001a10:	2100      	movs	r1, #0
10001a12:	4648      	mov	r0, r9
10001a14:	f001 fd54 	bl	100034c0 <__wrap_memset>
10001a18:	f7ff fb0e 	bl	10001038 <clear_buffer>
10001a1c:	2201      	movs	r2, #1
10001a1e:	2300      	movs	r3, #0
10001a20:	4659      	mov	r1, fp
10001a22:	700b      	strb	r3, [r1, #0]
10001a24:	4b1c      	ldr	r3, [pc, #112]	@ (10001a98 <check_gps_status.part.0+0x2c8>)
10001a26:	701a      	strb	r2, [r3, #0]
10001a28:	b005      	add	sp, #20
10001a2a:	bcf0      	pop	{r4, r5, r6, r7}
10001a2c:	46bb      	mov	fp, r7
10001a2e:	46b2      	mov	sl, r6
10001a30:	46a9      	mov	r9, r5
10001a32:	46a0      	mov	r8, r4
10001a34:	bdf0      	pop	{r4, r5, r6, r7, pc}
10001a36:	46b1      	mov	r9, r6
10001a38:	4918      	ldr	r1, [pc, #96]	@ (10001a9c <check_gps_status.part.0+0x2cc>)
10001a3a:	e7e5      	b.n	10001a08 <check_gps_status.part.0+0x238>
10001a3c:	4918      	ldr	r1, [pc, #96]	@ (10001aa0 <check_gps_status.part.0+0x2d0>)
10001a3e:	9802      	ldr	r0, [sp, #8]
10001a40:	0025      	movs	r5, r4
10001a42:	0014      	movs	r4, r2
10001a44:	f7fe fd3a 	bl	100004bc <response_back>
10001a48:	2300      	movs	r3, #0
10001a4a:	2200      	movs	r2, #0
10001a4c:	7023      	strb	r3, [r4, #0]
10001a4e:	702b      	strb	r3, [r5, #0]
10001a50:	e7e5      	b.n	10001a1e <check_gps_status.part.0+0x24e>
10001a52:	46c0      	nop			@ (mov r8, r8)
10001a54:	200006c8 	.word	0x200006c8
10001a58:	20000c4b 	.word	0x20000c4b
10001a5c:	20000c3d 	.word	0x20000c3d
10001a60:	100040e8 	.word	0x100040e8
10001a64:	200001a8 	.word	0x200001a8
10001a68:	20000840 	.word	0x20000840
10001a6c:	200001c0 	.word	0x200001c0
10001a70:	20000c4f 	.word	0x20000c4f
10001a74:	100040fc 	.word	0x100040fc
10001a78:	00001388 	.word	0x00001388
10001a7c:	20000c4e 	.word	0x20000c4e
10001a80:	20000c4c 	.word	0x20000c4c
10001a84:	10003f28 	.word	0x10003f28
10001a88:	20000208 	.word	0x20000208
10001a8c:	10003ec8 	.word	0x10003ec8
10001a90:	2000020c 	.word	0x2000020c
10001a94:	10003e68 	.word	0x10003e68
10001a98:	20000c4d 	.word	0x20000c4d
10001a9c:	10003e98 	.word	0x10003e98
10001aa0:	10003ef8 	.word	0x10003ef8

10001aa4 <initGPS>:
10001aa4:	b5f8      	push	{r3, r4, r5, r6, r7, lr}
10001aa6:	4f17      	ldr	r7, [pc, #92]	@ (10001b04 <initGPS+0x60>)
10001aa8:	783b      	ldrb	r3, [r7, #0]
10001aaa:	2b00      	cmp	r3, #0
10001aac:	d123      	bne.n	10001af6 <initGPS+0x52>
10001aae:	4d16      	ldr	r5, [pc, #88]	@ (10001b08 <initGPS+0x64>)
10001ab0:	782b      	ldrb	r3, [r5, #0]
10001ab2:	2b04      	cmp	r3, #4
10001ab4:	d81a      	bhi.n	10001aec <initGPS+0x48>
10001ab6:	4e15      	ldr	r6, [pc, #84]	@ (10001b0c <initGPS+0x68>)
10001ab8:	e008      	b.n	10001acc <initGPS+0x28>
10001aba:	f7ff fabd 	bl	10001038 <clear_buffer>
10001abe:	20fa      	movs	r0, #250	@ 0xfa
10001ac0:	0040      	lsls	r0, r0, #1
10001ac2:	f000 fe51 	bl	10002768 <sleep_ms>
10001ac6:	782b      	ldrb	r3, [r5, #0]
10001ac8:	2b04      	cmp	r3, #4
10001aca:	d815      	bhi.n	10001af8 <initGPS+0x54>
10001acc:	6830      	ldr	r0, [r6, #0]
10001ace:	f7ff fbb3 	bl	10001238 <sendDataOverUART>
10001ad2:	6830      	ldr	r0, [r6, #0]
10001ad4:	f7ff fbe4 	bl	100012a0 <sendDataOverDebug>
10001ad8:	782b      	ldrb	r3, [r5, #0]
10001ada:	3301      	adds	r3, #1
10001adc:	702b      	strb	r3, [r5, #0]
10001ade:	f7ff fa89 	bl	10000ff4 <checkResponse>
10001ae2:	1e04      	subs	r4, r0, #0
10001ae4:	d1e9      	bne.n	10001aba <initGPS+0x16>
10001ae6:	f7ff faa7 	bl	10001038 <clear_buffer>
10001aea:	702c      	strb	r4, [r5, #0]
10001aec:	783b      	ldrb	r3, [r7, #0]
10001aee:	2b00      	cmp	r3, #0
10001af0:	d101      	bne.n	10001af6 <initGPS+0x52>
10001af2:	f7ff fe6d 	bl	100017d0 <check_gps_status.part.0>
10001af6:	bdf8      	pop	{r3, r4, r5, r6, r7, pc}
10001af8:	2000      	movs	r0, #0
10001afa:	f7ff f819 	bl	10000b30 <reset_module>
10001afe:	2300      	movs	r3, #0
10001b00:	702b      	strb	r3, [r5, #0]
10001b02:	e7e3      	b.n	10001acc <initGPS+0x28>
10001b04:	20000c40 	.word	0x20000c40
10001b08:	20000c3d 	.word	0x20000c3d
10001b0c:	200001bc 	.word	0x200001bc

10001b10 <get_gps_location>:
10001b10:	b5f0      	push	{r4, r5, r6, r7, lr}
10001b12:	4646      	mov	r6, r8
10001b14:	46d6      	mov	lr, sl
10001b16:	464f      	mov	r7, r9
10001b18:	b5c0      	push	{r6, r7, lr}
10001b1a:	4e41      	ldr	r6, [pc, #260]	@ (10001c20 <get_gps_location+0x110>)
10001b1c:	7833      	ldrb	r3, [r6, #0]
10001b1e:	2b00      	cmp	r3, #0
10001b20:	d103      	bne.n	10001b2a <get_gps_location+0x1a>
10001b22:	4b40      	ldr	r3, [pc, #256]	@ (10001c24 <get_gps_location+0x114>)
10001b24:	781b      	ldrb	r3, [r3, #0]
10001b26:	2b01      	cmp	r3, #1
10001b28:	d00f      	beq.n	10001b4a <get_gps_location+0x3a>
10001b2a:	493f      	ldr	r1, [pc, #252]	@ (10001c28 <get_gps_location+0x118>)
10001b2c:	483f      	ldr	r0, [pc, #252]	@ (10001c2c <get_gps_location+0x11c>)
10001b2e:	f7fe fcc5 	bl	100004bc <response_back>
10001b32:	7833      	ldrb	r3, [r6, #0]
10001b34:	4d3e      	ldr	r5, [pc, #248]	@ (10001c30 <get_gps_location+0x120>)
10001b36:	2b00      	cmp	r3, #0
10001b38:	d152      	bne.n	10001be0 <get_gps_location+0xd0>
10001b3a:	0028      	movs	r0, r5
10001b3c:	f7ff fbb0 	bl	100012a0 <sendDataOverDebug>
10001b40:	bce0      	pop	{r5, r6, r7}
10001b42:	46ba      	mov	sl, r7
10001b44:	46b1      	mov	r9, r6
10001b46:	46a8      	mov	r8, r5
10001b48:	bdf0      	pop	{r4, r5, r6, r7, pc}
10001b4a:	4c3a      	ldr	r4, [pc, #232]	@ (10001c34 <get_gps_location+0x124>)
10001b4c:	7823      	ldrb	r3, [r4, #0]
10001b4e:	2b04      	cmp	r3, #4
10001b50:	d863      	bhi.n	10001c1a <get_gps_location+0x10a>
10001b52:	4d39      	ldr	r5, [pc, #228]	@ (10001c38 <get_gps_location+0x128>)
10001b54:	e008      	b.n	10001b68 <get_gps_location+0x58>
10001b56:	f7ff fa6f 	bl	10001038 <clear_buffer>
10001b5a:	20fa      	movs	r0, #250	@ 0xfa
10001b5c:	0040      	lsls	r0, r0, #1
10001b5e:	f000 fe03 	bl	10002768 <sleep_ms>
10001b62:	7823      	ldrb	r3, [r4, #0]
10001b64:	2b04      	cmp	r3, #4
10001b66:	d852      	bhi.n	10001c0e <get_gps_location+0xfe>
10001b68:	6828      	ldr	r0, [r5, #0]
10001b6a:	f7ff fb65 	bl	10001238 <sendDataOverUART>
10001b6e:	7823      	ldrb	r3, [r4, #0]
10001b70:	3301      	adds	r3, #1
10001b72:	7023      	strb	r3, [r4, #0]
10001b74:	f7ff fa3e 	bl	10000ff4 <checkResponse>
10001b78:	2800      	cmp	r0, #0
10001b7a:	d1ec      	bne.n	10001b56 <get_gps_location+0x46>
10001b7c:	2300      	movs	r3, #0
10001b7e:	4d2c      	ldr	r5, [pc, #176]	@ (10001c30 <get_gps_location+0x120>)
10001b80:	4699      	mov	r9, r3
10001b82:	4698      	mov	r8, r3
10001b84:	4b2d      	ldr	r3, [pc, #180]	@ (10001c3c <get_gps_location+0x12c>)
10001b86:	7020      	strb	r0, [r4, #0]
10001b88:	0028      	movs	r0, r5
10001b8a:	2700      	movs	r7, #0
10001b8c:	469a      	mov	sl, r3
10001b8e:	f7ff fd91 	bl	100016b4 <strlen_mod>
10001b92:	4287      	cmp	r7, r0
10001b94:	d212      	bcs.n	10001bbc <get_gps_location+0xac>
10001b96:	57eb      	ldrsb	r3, [r5, r7]
10001b98:	464a      	mov	r2, r9
10001b9a:	2b2c      	cmp	r3, #44	@ 0x2c
10001b9c:	d026      	beq.n	10001bec <get_gps_location+0xdc>
10001b9e:	3a03      	subs	r2, #3
10001ba0:	2a01      	cmp	r2, #1
10001ba2:	d805      	bhi.n	10001bb0 <get_gps_location+0xa0>
10001ba4:	4641      	mov	r1, r8
10001ba6:	4652      	mov	r2, sl
10001ba8:	5453      	strb	r3, [r2, r1]
10001baa:	2301      	movs	r3, #1
10001bac:	469c      	mov	ip, r3
10001bae:	44e0      	add	r8, ip
10001bb0:	3701      	adds	r7, #1
10001bb2:	0028      	movs	r0, r5
10001bb4:	f7ff fd7e 	bl	100016b4 <strlen_mod>
10001bb8:	4287      	cmp	r7, r0
10001bba:	d3ec      	bcc.n	10001b96 <get_gps_location+0x86>
10001bbc:	2300      	movs	r3, #0
10001bbe:	4652      	mov	r2, sl
10001bc0:	4641      	mov	r1, r8
10001bc2:	4650      	mov	r0, sl
10001bc4:	5453      	strb	r3, [r2, r1]
10001bc6:	f7ff fb6b 	bl	100012a0 <sendDataOverDebug>
10001bca:	f7ff fa35 	bl	10001038 <clear_buffer>
10001bce:	7822      	ldrb	r2, [r4, #0]
10001bd0:	7833      	ldrb	r3, [r6, #0]
10001bd2:	2a04      	cmp	r2, #4
10001bd4:	d9af      	bls.n	10001b36 <get_gps_location+0x26>
10001bd6:	3301      	adds	r3, #1
10001bd8:	b2db      	uxtb	r3, r3
10001bda:	7033      	strb	r3, [r6, #0]
10001bdc:	2b00      	cmp	r3, #0
10001bde:	d0ac      	beq.n	10001b3a <get_gps_location+0x2a>
10001be0:	2300      	movs	r3, #0
10001be2:	2000      	movs	r0, #0
10001be4:	7033      	strb	r3, [r6, #0]
10001be6:	f7fe ffa3 	bl	10000b30 <reset_module>
10001bea:	e7a6      	b.n	10001b3a <get_gps_location+0x2a>
10001bec:	2a03      	cmp	r2, #3
10001bee:	d004      	beq.n	10001bfa <get_gps_location+0xea>
10001bf0:	2301      	movs	r3, #1
10001bf2:	469c      	mov	ip, r3
10001bf4:	3701      	adds	r7, #1
10001bf6:	44e1      	add	r9, ip
10001bf8:	e7db      	b.n	10001bb2 <get_gps_location+0xa2>
10001bfa:	4641      	mov	r1, r8
10001bfc:	4652      	mov	r2, sl
10001bfe:	5453      	strb	r3, [r2, r1]
10001c00:	3b2b      	subs	r3, #43	@ 0x2b
10001c02:	469c      	mov	ip, r3
10001c04:	3303      	adds	r3, #3
10001c06:	4699      	mov	r9, r3
10001c08:	44e0      	add	r8, ip
10001c0a:	3701      	adds	r7, #1
10001c0c:	e7d1      	b.n	10001bb2 <get_gps_location+0xa2>
10001c0e:	7833      	ldrb	r3, [r6, #0]
10001c10:	4d07      	ldr	r5, [pc, #28]	@ (10001c30 <get_gps_location+0x120>)
10001c12:	3301      	adds	r3, #1
10001c14:	b2db      	uxtb	r3, r3
10001c16:	7033      	strb	r3, [r6, #0]
10001c18:	e7e0      	b.n	10001bdc <get_gps_location+0xcc>
10001c1a:	4d05      	ldr	r5, [pc, #20]	@ (10001c30 <get_gps_location+0x120>)
10001c1c:	e7e0      	b.n	10001be0 <get_gps_location+0xd0>
10001c1e:	46c0      	nop			@ (mov r8, r8)
10001c20:	20000c40 	.word	0x20000c40
10001c24:	20000c4d 	.word	0x20000c4d
10001c28:	10003f58 	.word	0x10003f58
10001c2c:	200001a8 	.word	0x200001a8
10001c30:	20000840 	.word	0x20000840
10001c34:	20000c3d 	.word	0x20000c3d
10001c38:	200001c4 	.word	0x200001c4
10001c3c:	200006c8 	.word	0x200006c8

10001c40 <send_location>:
10001c40:	b510      	push	{r4, lr}
10001c42:	2064      	movs	r0, #100	@ 0x64
10001c44:	b0b2      	sub	sp, #200	@ 0xc8
10001c46:	f000 fd8f 	bl	10002768 <sleep_ms>
10001c4a:	f7ff ff61 	bl	10001b10 <get_gps_location>
10001c4e:	4b0c      	ldr	r3, [pc, #48]	@ (10001c80 <send_location+0x40>)
10001c50:	490c      	ldr	r1, [pc, #48]	@ (10001c84 <send_location+0x44>)
10001c52:	6818      	ldr	r0, [r3, #0]
10001c54:	f7ff fce0 	bl	10001618 <join_strings>
10001c58:	4c0b      	ldr	r4, [pc, #44]	@ (10001c88 <send_location+0x48>)
10001c5a:	4668      	mov	r0, sp
10001c5c:	0021      	movs	r1, r4
10001c5e:	f7ff fd35 	bl	100016cc <strcpy_mod>
10001c62:	20c8      	movs	r0, #200	@ 0xc8
10001c64:	0040      	lsls	r0, r0, #1
10001c66:	f000 fd7f 	bl	10002768 <sleep_ms>
10001c6a:	22c8      	movs	r2, #200	@ 0xc8
10001c6c:	2100      	movs	r1, #0
10001c6e:	0020      	movs	r0, r4
10001c70:	f001 fc26 	bl	100034c0 <__wrap_memset>
10001c74:	4669      	mov	r1, sp
10001c76:	4805      	ldr	r0, [pc, #20]	@ (10001c8c <send_location+0x4c>)
10001c78:	f7fe fc20 	bl	100004bc <response_back>
10001c7c:	b032      	add	sp, #200	@ 0xc8
10001c7e:	bd10      	pop	{r4, pc}
10001c80:	200001a0 	.word	0x200001a0
10001c84:	200006c8 	.word	0x200006c8
10001c88:	20000744 	.word	0x20000744
10001c8c:	200001a8 	.word	0x200001a8

10001c90 <check_authentication>:
10001c90:	b510      	push	{r4, lr}
10001c92:	0004      	movs	r4, r0
10001c94:	2032      	movs	r0, #50	@ 0x32
10001c96:	f000 fd67 	bl	10002768 <sleep_ms>
10001c9a:	f7ff f9cd 	bl	10001038 <clear_buffer>
10001c9e:	0020      	movs	r0, r4
10001ca0:	4909      	ldr	r1, [pc, #36]	@ (10001cc8 <check_authentication+0x38>)
10001ca2:	f7ff fd21 	bl	100016e8 <strcmp_mod>
10001ca6:	2301      	movs	r3, #1
10001ca8:	2800      	cmp	r0, #0
10001caa:	d007      	beq.n	10001cbc <check_authentication+0x2c>
10001cac:	4a07      	ldr	r2, [pc, #28]	@ (10001ccc <check_authentication+0x3c>)
10001cae:	2064      	movs	r0, #100	@ 0x64
10001cb0:	7013      	strb	r3, [r2, #0]
10001cb2:	f000 fd59 	bl	10002768 <sleep_ms>
10001cb6:	f7ff f9bf 	bl	10001038 <clear_buffer>
10001cba:	bd10      	pop	{r4, pc}
10001cbc:	4804      	ldr	r0, [pc, #16]	@ (10001cd0 <check_authentication+0x40>)
10001cbe:	f7ff faef 	bl	100012a0 <sendDataOverDebug>
10001cc2:	2300      	movs	r3, #0
10001cc4:	e7f2      	b.n	10001cac <check_authentication+0x1c>
10001cc6:	46c0      	nop			@ (mov r8, r8)
10001cc8:	200001a8 	.word	0x200001a8
10001ccc:	20000c41 	.word	0x20000c41
10001cd0:	10003fb4 	.word	0x10003fb4

10001cd4 <gpio_set_function>:
10001cd4:	4a09      	ldr	r2, [pc, #36]	@ (10001cfc <gpio_set_function+0x28>)
10001cd6:	0083      	lsls	r3, r0, #2
10001cd8:	189a      	adds	r2, r3, r2
10001cda:	b510      	push	{r4, lr}
10001cdc:	6814      	ldr	r4, [r2, #0]
10001cde:	2240      	movs	r2, #64	@ 0x40
10001ce0:	4054      	eors	r4, r2
10001ce2:	3280      	adds	r2, #128	@ 0x80
10001ce4:	4022      	ands	r2, r4
10001ce6:	4c06      	ldr	r4, [pc, #24]	@ (10001d00 <gpio_set_function+0x2c>)
10001ce8:	00c0      	lsls	r0, r0, #3
10001cea:	46a4      	mov	ip, r4
10001cec:	4463      	add	r3, ip
10001cee:	601a      	str	r2, [r3, #0]
10001cf0:	4b04      	ldr	r3, [pc, #16]	@ (10001d04 <gpio_set_function+0x30>)
10001cf2:	469c      	mov	ip, r3
10001cf4:	4460      	add	r0, ip
10001cf6:	6041      	str	r1, [r0, #4]
10001cf8:	bd10      	pop	{r4, pc}
10001cfa:	46c0      	nop			@ (mov r8, r8)
10001cfc:	4001c004 	.word	0x4001c004
10001d00:	4001d004 	.word	0x4001d004
10001d04:	40014000 	.word	0x40014000

10001d08 <gpio_init>:
10001d08:	2301      	movs	r3, #1
10001d0a:	22d0      	movs	r2, #208	@ 0xd0
10001d0c:	4083      	lsls	r3, r0
10001d0e:	0612      	lsls	r2, r2, #24
10001d10:	6293      	str	r3, [r2, #40]	@ 0x28
10001d12:	6193      	str	r3, [r2, #24]
10001d14:	4a09      	ldr	r2, [pc, #36]	@ (10001d3c <gpio_init+0x34>)
10001d16:	0083      	lsls	r3, r0, #2
10001d18:	189a      	adds	r2, r3, r2
10001d1a:	6811      	ldr	r1, [r2, #0]
10001d1c:	2240      	movs	r2, #64	@ 0x40
10001d1e:	4051      	eors	r1, r2
10001d20:	3280      	adds	r2, #128	@ 0x80
10001d22:	400a      	ands	r2, r1
10001d24:	4906      	ldr	r1, [pc, #24]	@ (10001d40 <gpio_init+0x38>)
10001d26:	00c0      	lsls	r0, r0, #3
10001d28:	468c      	mov	ip, r1
10001d2a:	4463      	add	r3, ip
10001d2c:	601a      	str	r2, [r3, #0]
10001d2e:	4b05      	ldr	r3, [pc, #20]	@ (10001d44 <gpio_init+0x3c>)
10001d30:	469c      	mov	ip, r3
10001d32:	2305      	movs	r3, #5
10001d34:	4460      	add	r0, ip
10001d36:	6043      	str	r3, [r0, #4]
10001d38:	4770      	bx	lr
10001d3a:	46c0      	nop			@ (mov r8, r8)
10001d3c:	4001c004 	.word	0x4001c004
10001d40:	4001d004 	.word	0x4001d004
10001d44:	40014000 	.word	0x40014000

10001d48 <panic>:
10001d48:	b40f      	push	{r0, r1, r2, r3}
10001d4a:	b500      	push	{lr}
10001d4c:	4808      	ldr	r0, [pc, #32]	@ (10001d70 <panic+0x28>)
10001d4e:	b083      	sub	sp, #12
10001d50:	f001 fd3a 	bl	100037c8 <__wrap_puts>
10001d54:	9b04      	ldr	r3, [sp, #16]
10001d56:	2b00      	cmp	r3, #0
10001d58:	d007      	beq.n	10001d6a <panic+0x22>
10001d5a:	a905      	add	r1, sp, #20
10001d5c:	0018      	movs	r0, r3
10001d5e:	9101      	str	r1, [sp, #4]
10001d60:	f001 fbc2 	bl	100034e8 <weak_raw_vprintf>
10001d64:	4803      	ldr	r0, [pc, #12]	@ (10001d74 <panic+0x2c>)
10001d66:	f001 fd2f 	bl	100037c8 <__wrap_puts>
10001d6a:	2001      	movs	r0, #1
10001d6c:	f001 fbd4 	bl	10003518 <_exit>
10001d70:	10003fc8 	.word	0x10003fc8
10001d74:	10003d78 	.word	0x10003d78

10001d78 <hw_claim_or_assert>:
10001d78:	b570      	push	{r4, r5, r6, lr}
10001d7a:	f3ef 8c10 	mrs	ip, PRIMASK
10001d7e:	b672      	cpsid	i
10001d80:	4d0d      	ldr	r5, [pc, #52]	@ (10001db8 <hw_claim_or_assert+0x40>)
10001d82:	682b      	ldr	r3, [r5, #0]
10001d84:	2b00      	cmp	r3, #0
10001d86:	d0fc      	beq.n	10001d82 <hw_claim_or_assert+0xa>
10001d88:	f3bf 8f5f 	dmb	sy
10001d8c:	2407      	movs	r4, #7
10001d8e:	08cb      	lsrs	r3, r1, #3
10001d90:	18c6      	adds	r6, r0, r3
10001d92:	5cc0      	ldrb	r0, [r0, r3]
10001d94:	2301      	movs	r3, #1
10001d96:	400c      	ands	r4, r1
10001d98:	40a3      	lsls	r3, r4
10001d9a:	001c      	movs	r4, r3
10001d9c:	4004      	ands	r4, r0
10001d9e:	4203      	tst	r3, r0
10001da0:	d107      	bne.n	10001db2 <hw_claim_or_assert+0x3a>
10001da2:	4318      	orrs	r0, r3
10001da4:	7030      	strb	r0, [r6, #0]
10001da6:	f3bf 8f5f 	dmb	sy
10001daa:	602c      	str	r4, [r5, #0]
10001dac:	f38c 8810 	msr	PRIMASK, ip
10001db0:	bd70      	pop	{r4, r5, r6, pc}
10001db2:	0010      	movs	r0, r2
10001db4:	f7ff ffc8 	bl	10001d48 <panic>
10001db8:	d000012c 	.word	0xd000012c

10001dbc <next_striped_spin_lock_num>:
10001dbc:	4a04      	ldr	r2, [pc, #16]	@ (10001dd0 <next_striped_spin_lock_num+0x14>)
10001dbe:	7810      	ldrb	r0, [r2, #0]
10001dc0:	1c43      	adds	r3, r0, #1
10001dc2:	b2db      	uxtb	r3, r3
10001dc4:	2b17      	cmp	r3, #23
10001dc6:	d900      	bls.n	10001dca <next_striped_spin_lock_num+0xe>
10001dc8:	2310      	movs	r3, #16
10001dca:	7013      	strb	r3, [r2, #0]
10001dcc:	4770      	bx	lr
10001dce:	46c0      	nop			@ (mov r8, r8)
10001dd0:	20000210 	.word	0x20000210

10001dd4 <spin_locks_reset>:
10001dd4:	2100      	movs	r1, #0
10001dd6:	4b04      	ldr	r3, [pc, #16]	@ (10001de8 <spin_locks_reset+0x14>)
10001dd8:	4a04      	ldr	r2, [pc, #16]	@ (10001dec <spin_locks_reset+0x18>)
10001dda:	f3bf 8f5f 	dmb	sy
10001dde:	c302      	stmia	r3!, {r1}
10001de0:	4293      	cmp	r3, r2
10001de2:	d1fa      	bne.n	10001dda <spin_locks_reset+0x6>
10001de4:	4770      	bx	lr
10001de6:	46c0      	nop			@ (mov r8, r8)
10001de8:	d0000100 	.word	0xd0000100
10001dec:	d0000180 	.word	0xd0000180

10001df0 <runtime_init_per_core_irq_priorities>:
10001df0:	4b05      	ldr	r3, [pc, #20]	@ (10001e08 <runtime_init_per_core_irq_priorities+0x18>)
10001df2:	4a06      	ldr	r2, [pc, #24]	@ (10001e0c <runtime_init_per_core_irq_priorities+0x1c>)
10001df4:	6013      	str	r3, [r2, #0]
10001df6:	4a06      	ldr	r2, [pc, #24]	@ (10001e10 <runtime_init_per_core_irq_priorities+0x20>)
10001df8:	6013      	str	r3, [r2, #0]
10001dfa:	6053      	str	r3, [r2, #4]
10001dfc:	6093      	str	r3, [r2, #8]
10001dfe:	60d3      	str	r3, [r2, #12]
10001e00:	6113      	str	r3, [r2, #16]
10001e02:	6153      	str	r3, [r2, #20]
10001e04:	6193      	str	r3, [r2, #24]
10001e06:	4770      	bx	lr
10001e08:	80808080 	.word	0x80808080
10001e0c:	e000e400 	.word	0xe000e400
10001e10:	e000e404 	.word	0xe000e404

10001e14 <irq_set_enabled>:
10001e14:	231f      	movs	r3, #31
10001e16:	4018      	ands	r0, r3
10001e18:	3b1e      	subs	r3, #30
10001e1a:	4083      	lsls	r3, r0
10001e1c:	2900      	cmp	r1, #0
10001e1e:	d005      	beq.n	10001e2c <irq_set_enabled+0x18>
10001e20:	21c0      	movs	r1, #192	@ 0xc0
10001e22:	4a04      	ldr	r2, [pc, #16]	@ (10001e34 <irq_set_enabled+0x20>)
10001e24:	0049      	lsls	r1, r1, #1
10001e26:	5053      	str	r3, [r2, r1]
10001e28:	6013      	str	r3, [r2, #0]
10001e2a:	4770      	bx	lr
10001e2c:	2280      	movs	r2, #128	@ 0x80
10001e2e:	4901      	ldr	r1, [pc, #4]	@ (10001e34 <irq_set_enabled+0x20>)
10001e30:	508b      	str	r3, [r1, r2]
10001e32:	e7fa      	b.n	10001e2a <irq_set_enabled+0x16>
10001e34:	e000e100 	.word	0xe000e100

10001e38 <irq_set_exclusive_handler>:
10001e38:	b570      	push	{r4, r5, r6, lr}
10001e3a:	000d      	movs	r5, r1
10001e3c:	f3ef 8610 	mrs	r6, PRIMASK
10001e40:	b672      	cpsid	i
10001e42:	4a0f      	ldr	r2, [pc, #60]	@ (10001e80 <irq_set_exclusive_handler+0x48>)
10001e44:	6813      	ldr	r3, [r2, #0]
10001e46:	2b00      	cmp	r3, #0
10001e48:	d0fc      	beq.n	10001e44 <irq_set_exclusive_handler+0xc>
10001e4a:	f3bf 8f5f 	dmb	sy
10001e4e:	4b0d      	ldr	r3, [pc, #52]	@ (10001e84 <irq_set_exclusive_handler+0x4c>)
10001e50:	3010      	adds	r0, #16
10001e52:	689b      	ldr	r3, [r3, #8]
10001e54:	0084      	lsls	r4, r0, #2
10001e56:	591b      	ldr	r3, [r3, r4]
10001e58:	4a0b      	ldr	r2, [pc, #44]	@ (10001e88 <irq_set_exclusive_handler+0x50>)
10001e5a:	4293      	cmp	r3, r2
10001e5c:	d003      	beq.n	10001e66 <irq_set_exclusive_handler+0x2e>
10001e5e:	429d      	cmp	r5, r3
10001e60:	d001      	beq.n	10001e66 <irq_set_exclusive_handler+0x2e>
10001e62:	f001 f925 	bl	100030b0 <hard_assertion_failure>
10001e66:	4b07      	ldr	r3, [pc, #28]	@ (10001e84 <irq_set_exclusive_handler+0x4c>)
10001e68:	689b      	ldr	r3, [r3, #8]
10001e6a:	511d      	str	r5, [r3, r4]
10001e6c:	f3bf 8f5f 	dmb	sy
10001e70:	f3bf 8f5f 	dmb	sy
10001e74:	2200      	movs	r2, #0
10001e76:	4b02      	ldr	r3, [pc, #8]	@ (10001e80 <irq_set_exclusive_handler+0x48>)
10001e78:	601a      	str	r2, [r3, #0]
10001e7a:	f386 8810 	msr	PRIMASK, r6
10001e7e:	bd70      	pop	{r4, r5, r6, pc}
10001e80:	d0000124 	.word	0xd0000124
10001e84:	e000ed00 	.word	0xe000ed00
10001e88:	100001cd 	.word	0x100001cd

10001e8c <irq_remove_handler>:
10001e8c:	b5f0      	push	{r4, r5, r6, r7, lr}
10001e8e:	46de      	mov	lr, fp
10001e90:	4657      	mov	r7, sl
10001e92:	464e      	mov	r6, r9
10001e94:	4645      	mov	r5, r8
10001e96:	b5e0      	push	{r5, r6, r7, lr}
10001e98:	000c      	movs	r4, r1
10001e9a:	b083      	sub	sp, #12
10001e9c:	f3ef 8810 	mrs	r8, PRIMASK
10001ea0:	b672      	cpsid	i
10001ea2:	4a63      	ldr	r2, [pc, #396]	@ (10002030 <irq_remove_handler+0x1a4>)
10001ea4:	6813      	ldr	r3, [r2, #0]
10001ea6:	2b00      	cmp	r3, #0
10001ea8:	d0fc      	beq.n	10001ea4 <irq_remove_handler+0x18>
10001eaa:	f3bf 8f5f 	dmb	sy
10001eae:	4b61      	ldr	r3, [pc, #388]	@ (10002034 <irq_remove_handler+0x1a8>)
10001eb0:	4961      	ldr	r1, [pc, #388]	@ (10002038 <irq_remove_handler+0x1ac>)
10001eb2:	689a      	ldr	r2, [r3, #8]
10001eb4:	0003      	movs	r3, r0
10001eb6:	3310      	adds	r3, #16
10001eb8:	009f      	lsls	r7, r3, #2
10001eba:	59d5      	ldr	r5, [r2, r7]
10001ebc:	9300      	str	r3, [sp, #0]
10001ebe:	428d      	cmp	r5, r1
10001ec0:	d043      	beq.n	10001f4a <irq_remove_handler+0xbe>
10001ec2:	42a5      	cmp	r5, r4
10001ec4:	d054      	beq.n	10001f70 <irq_remove_handler+0xe4>
10001ec6:	4e5d      	ldr	r6, [pc, #372]	@ (1000203c <irq_remove_handler+0x1b0>)
10001ec8:	1baa      	subs	r2, r5, r6
10001eca:	2a2f      	cmp	r2, #47	@ 0x2f
10001ecc:	d83d      	bhi.n	10001f4a <irq_remove_handler+0xbe>
10001ece:	4b5c      	ldr	r3, [pc, #368]	@ (10002040 <irq_remove_handler+0x1b4>)
10001ed0:	469c      	mov	ip, r3
10001ed2:	681b      	ldr	r3, [r3, #0]
10001ed4:	469a      	mov	sl, r3
10001ed6:	2301      	movs	r3, #1
10001ed8:	001a      	movs	r2, r3
10001eda:	4699      	mov	r9, r3
10001edc:	4082      	lsls	r2, r0
10001ede:	4653      	mov	r3, sl
10001ee0:	4013      	ands	r3, r2
10001ee2:	221f      	movs	r2, #31
10001ee4:	9301      	str	r3, [sp, #4]
10001ee6:	464b      	mov	r3, r9
10001ee8:	4002      	ands	r2, r0
10001eea:	4093      	lsls	r3, r2
10001eec:	469a      	mov	sl, r3
10001eee:	2280      	movs	r2, #128	@ 0x80
10001ef0:	4663      	mov	r3, ip
10001ef2:	4650      	mov	r0, sl
10001ef4:	5098      	str	r0, [r3, r2]
10001ef6:	f3bf 8f5f 	dmb	sy
10001efa:	f3ef 8305 	mrs	r3, IPSR
10001efe:	469b      	mov	fp, r3
10001f00:	2b00      	cmp	r3, #0
10001f02:	d037      	beq.n	10001f74 <irq_remove_handler+0xe8>
10001f04:	9b00      	ldr	r3, [sp, #0]
10001f06:	455b      	cmp	r3, fp
10001f08:	d001      	beq.n	10001f0e <irq_remove_handler+0x82>
10001f0a:	f001 f8d1 	bl	100030b0 <hard_assertion_failure>
10001f0e:	002a      	movs	r2, r5
10001f10:	464b      	mov	r3, r9
10001f12:	439a      	bics	r2, r3
10001f14:	6890      	ldr	r0, [r2, #8]
10001f16:	4284      	cmp	r4, r0
10001f18:	d108      	bne.n	10001f2c <irq_remove_handler+0xa0>
10001f1a:	e077      	b.n	1000200c <irq_remove_handler+0x180>
10001f1c:	004b      	lsls	r3, r1, #1
10001f1e:	185b      	adds	r3, r3, r1
10001f20:	009b      	lsls	r3, r3, #2
10001f22:	18f3      	adds	r3, r6, r3
10001f24:	6898      	ldr	r0, [r3, #8]
10001f26:	4284      	cmp	r4, r0
10001f28:	d036      	beq.n	10001f98 <irq_remove_handler+0x10c>
10001f2a:	001a      	movs	r2, r3
10001f2c:	2106      	movs	r1, #6
10001f2e:	5651      	ldrsb	r1, [r2, r1]
10001f30:	2900      	cmp	r1, #0
10001f32:	daf3      	bge.n	10001f1c <irq_remove_handler+0x90>
10001f34:	4284      	cmp	r4, r0
10001f36:	d055      	beq.n	10001fe4 <irq_remove_handler+0x158>
10001f38:	9b01      	ldr	r3, [sp, #4]
10001f3a:	2b00      	cmp	r3, #0
10001f3c:	d027      	beq.n	10001f8e <irq_remove_handler+0x102>
10001f3e:	22c0      	movs	r2, #192	@ 0xc0
10001f40:	4651      	mov	r1, sl
10001f42:	4b3f      	ldr	r3, [pc, #252]	@ (10002040 <irq_remove_handler+0x1b4>)
10001f44:	0052      	lsls	r2, r2, #1
10001f46:	5099      	str	r1, [r3, r2]
10001f48:	6019      	str	r1, [r3, #0]
10001f4a:	4b3a      	ldr	r3, [pc, #232]	@ (10002034 <irq_remove_handler+0x1a8>)
10001f4c:	689b      	ldr	r3, [r3, #8]
10001f4e:	51dd      	str	r5, [r3, r7]
10001f50:	f3bf 8f5f 	dmb	sy
10001f54:	f3bf 8f5f 	dmb	sy
10001f58:	2200      	movs	r2, #0
10001f5a:	4b35      	ldr	r3, [pc, #212]	@ (10002030 <irq_remove_handler+0x1a4>)
10001f5c:	601a      	str	r2, [r3, #0]
10001f5e:	f388 8810 	msr	PRIMASK, r8
10001f62:	b003      	add	sp, #12
10001f64:	bcf0      	pop	{r4, r5, r6, r7}
10001f66:	46bb      	mov	fp, r7
10001f68:	46b2      	mov	sl, r6
10001f6a:	46a9      	mov	r9, r5
10001f6c:	46a0      	mov	r8, r4
10001f6e:	bdf0      	pop	{r4, r5, r6, r7, pc}
10001f70:	000d      	movs	r5, r1
10001f72:	e7ea      	b.n	10001f4a <irq_remove_handler+0xbe>
10001f74:	002a      	movs	r2, r5
10001f76:	464b      	mov	r3, r9
10001f78:	439a      	bics	r2, r3
10001f7a:	6890      	ldr	r0, [r2, #8]
10001f7c:	4284      	cmp	r4, r0
10001f7e:	d1d5      	bne.n	10001f2c <irq_remove_handler+0xa0>
10001f80:	2006      	movs	r0, #6
10001f82:	5610      	ldrsb	r0, [r2, r0]
10001f84:	0013      	movs	r3, r2
10001f86:	2800      	cmp	r0, #0
10001f88:	da0a      	bge.n	10001fa0 <irq_remove_handler+0x114>
10001f8a:	000d      	movs	r5, r1
10001f8c:	e032      	b.n	10001ff4 <irq_remove_handler+0x168>
10001f8e:	2380      	movs	r3, #128	@ 0x80
10001f90:	4651      	mov	r1, sl
10001f92:	4a2b      	ldr	r2, [pc, #172]	@ (10002040 <irq_remove_handler+0x1b4>)
10001f94:	50d1      	str	r1, [r2, r3]
10001f96:	e7d8      	b.n	10001f4a <irq_remove_handler+0xbe>
10001f98:	2006      	movs	r0, #6
10001f9a:	5618      	ldrsb	r0, [r3, r0]
10001f9c:	2800      	cmp	r0, #0
10001f9e:	db22      	blt.n	10001fe6 <irq_remove_handler+0x15a>
10001fa0:	0042      	lsls	r2, r0, #1
10001fa2:	1811      	adds	r1, r2, r0
10001fa4:	0089      	lsls	r1, r1, #2
10001fa6:	1874      	adds	r4, r6, r1
10001fa8:	4689      	mov	r9, r1
10001faa:	68a1      	ldr	r1, [r4, #8]
10001fac:	6099      	str	r1, [r3, #8]
10001fae:	79e1      	ldrb	r1, [r4, #7]
10001fb0:	71d9      	strb	r1, [r3, #7]
10001fb2:	2106      	movs	r1, #6
10001fb4:	5661      	ldrsb	r1, [r4, r1]
10001fb6:	7199      	strb	r1, [r3, #6]
10001fb8:	2900      	cmp	r1, #0
10001fba:	db25      	blt.n	10002008 <irq_remove_handler+0x17c>
10001fbc:	88a4      	ldrh	r4, [r4, #4]
10001fbe:	1af1      	subs	r1, r6, r3
10001fc0:	0564      	lsls	r4, r4, #21
10001fc2:	1524      	asrs	r4, r4, #20
10001fc4:	444c      	add	r4, r9
10001fc6:	1909      	adds	r1, r1, r4
10001fc8:	24e0      	movs	r4, #224	@ 0xe0
10001fca:	0509      	lsls	r1, r1, #20
10001fcc:	0d49      	lsrs	r1, r1, #21
10001fce:	0224      	lsls	r4, r4, #8
10001fd0:	4321      	orrs	r1, r4
10001fd2:	8099      	strh	r1, [r3, #4]
10001fd4:	1813      	adds	r3, r2, r0
10001fd6:	4a1b      	ldr	r2, [pc, #108]	@ (10002044 <irq_remove_handler+0x1b8>)
10001fd8:	009b      	lsls	r3, r3, #2
10001fda:	7811      	ldrb	r1, [r2, #0]
10001fdc:	18f3      	adds	r3, r6, r3
10001fde:	7199      	strb	r1, [r3, #6]
10001fe0:	7010      	strb	r0, [r2, #0]
10001fe2:	e7a9      	b.n	10001f38 <irq_remove_handler+0xac>
10001fe4:	0013      	movs	r3, r2
10001fe6:	4659      	mov	r1, fp
10001fe8:	2900      	cmp	r1, #0
10001fea:	d114      	bne.n	10002016 <irq_remove_handler+0x18a>
10001fec:	31ff      	adds	r1, #255	@ 0xff
10001fee:	7191      	strb	r1, [r2, #6]
10001ff0:	4915      	ldr	r1, [pc, #84]	@ (10002048 <irq_remove_handler+0x1bc>)
10001ff2:	8091      	strh	r1, [r2, #4]
10001ff4:	4913      	ldr	r1, [pc, #76]	@ (10002044 <irq_remove_handler+0x1b8>)
10001ff6:	780a      	ldrb	r2, [r1, #0]
10001ff8:	719a      	strb	r2, [r3, #6]
10001ffa:	4a14      	ldr	r2, [pc, #80]	@ (1000204c <irq_remove_handler+0x1c0>)
10001ffc:	1b9b      	subs	r3, r3, r6
10001ffe:	415b      	adcs	r3, r3
10002000:	435a      	muls	r2, r3
10002002:	0d12      	lsrs	r2, r2, #20
10002004:	700a      	strb	r2, [r1, #0]
10002006:	e797      	b.n	10001f38 <irq_remove_handler+0xac>
10002008:	4911      	ldr	r1, [pc, #68]	@ (10002050 <irq_remove_handler+0x1c4>)
1000200a:	e7e2      	b.n	10001fd2 <irq_remove_handler+0x146>
1000200c:	2006      	movs	r0, #6
1000200e:	5610      	ldrsb	r0, [r2, r0]
10002010:	0013      	movs	r3, r2
10002012:	2800      	cmp	r0, #0
10002014:	dac4      	bge.n	10001fa0 <irq_remove_handler+0x114>
10002016:	4a0f      	ldr	r2, [pc, #60]	@ (10002054 <irq_remove_handler+0x1c8>)
10002018:	490f      	ldr	r1, [pc, #60]	@ (10002058 <irq_remove_handler+0x1cc>)
1000201a:	1ad2      	subs	r2, r2, r3
1000201c:	3a08      	subs	r2, #8
1000201e:	0250      	lsls	r0, r2, #9
10002020:	0d40      	lsrs	r0, r0, #21
10002022:	4301      	orrs	r1, r0
10002024:	8099      	strh	r1, [r3, #4]
10002026:	490d      	ldr	r1, [pc, #52]	@ (1000205c <irq_remove_handler+0x1d0>)
10002028:	0852      	lsrs	r2, r2, #1
1000202a:	430a      	orrs	r2, r1
1000202c:	80da      	strh	r2, [r3, #6]
1000202e:	e783      	b.n	10001f38 <irq_remove_handler+0xac>
10002030:	d0000124 	.word	0xd0000124
10002034:	e000ed00 	.word	0xe000ed00
10002038:	100001cd 	.word	0x100001cd
1000203c:	20000214 	.word	0x20000214
10002040:	e000e100 	.word	0xe000e100
10002044:	20000c50 	.word	0x20000c50
10002048:	ffffbd01 	.word	0xffffbd01
1000204c:	0000aaaa 	.word	0x0000aaaa
10002050:	0000bd01 	.word	0x0000bd01
10002054:	2000024e 	.word	0x2000024e
10002058:	fffff000 	.word	0xfffff000
1000205c:	fffff800 	.word	0xfffff800

10002060 <irq_add_tail_to_free_list>:
10002060:	b570      	push	{r4, r5, r6, lr}
10002062:	2401      	movs	r4, #1
10002064:	4304      	orrs	r4, r0
10002066:	f3ef 8105 	mrs	r1, IPSR
1000206a:	f3ef 8c10 	mrs	ip, PRIMASK
1000206e:	b672      	cpsid	i
10002070:	4a21      	ldr	r2, [pc, #132]	@ (100020f8 <irq_add_tail_to_free_list+0x98>)
10002072:	6813      	ldr	r3, [r2, #0]
10002074:	2b00      	cmp	r3, #0
10002076:	d0fc      	beq.n	10002072 <irq_add_tail_to_free_list+0x12>
10002078:	f3bf 8f5f 	dmb	sy
1000207c:	4b1f      	ldr	r3, [pc, #124]	@ (100020fc <irq_add_tail_to_free_list+0x9c>)
1000207e:	0005      	movs	r5, r0
10002080:	4a1f      	ldr	r2, [pc, #124]	@ (10002100 <irq_add_tail_to_free_list+0xa0>)
10002082:	1aed      	subs	r5, r5, r3
10002084:	416d      	adcs	r5, r5
10002086:	436a      	muls	r2, r5
10002088:	0d12      	lsrs	r2, r2, #20
1000208a:	4d1e      	ldr	r5, [pc, #120]	@ (10002104 <irq_add_tail_to_free_list+0xa4>)
1000208c:	0089      	lsls	r1, r1, #2
1000208e:	68ae      	ldr	r6, [r5, #8]
10002090:	b252      	sxtb	r2, r2
10002092:	5876      	ldr	r6, [r6, r1]
10002094:	42a6      	cmp	r6, r4
10002096:	d01c      	beq.n	100020d2 <irq_add_tail_to_free_list+0x72>
10002098:	2106      	movs	r1, #6
1000209a:	5659      	ldrsb	r1, [r3, r1]
1000209c:	4291      	cmp	r1, r2
1000209e:	d01c      	beq.n	100020da <irq_add_tail_to_free_list+0x7a>
100020a0:	2112      	movs	r1, #18
100020a2:	5659      	ldrsb	r1, [r3, r1]
100020a4:	4291      	cmp	r1, r2
100020a6:	d022      	beq.n	100020ee <irq_add_tail_to_free_list+0x8e>
100020a8:	211e      	movs	r1, #30
100020aa:	5659      	ldrsb	r1, [r3, r1]
100020ac:	4291      	cmp	r1, r2
100020ae:	d020      	beq.n	100020f2 <irq_add_tail_to_free_list+0x92>
100020b0:	212a      	movs	r1, #42	@ 0x2a
100020b2:	5659      	ldrsb	r1, [r3, r1]
100020b4:	2403      	movs	r4, #3
100020b6:	4291      	cmp	r1, r2
100020b8:	d010      	beq.n	100020dc <irq_add_tail_to_free_list+0x7c>
100020ba:	4b13      	ldr	r3, [pc, #76]	@ (10002108 <irq_add_tail_to_free_list+0xa8>)
100020bc:	7819      	ldrb	r1, [r3, #0]
100020be:	701a      	strb	r2, [r3, #0]
100020c0:	7181      	strb	r1, [r0, #6]
100020c2:	f3bf 8f5f 	dmb	sy
100020c6:	2200      	movs	r2, #0
100020c8:	4b0b      	ldr	r3, [pc, #44]	@ (100020f8 <irq_add_tail_to_free_list+0x98>)
100020ca:	601a      	str	r2, [r3, #0]
100020cc:	f38c 8810 	msr	PRIMASK, ip
100020d0:	bd70      	pop	{r4, r5, r6, pc}
100020d2:	68ab      	ldr	r3, [r5, #8]
100020d4:	4c0d      	ldr	r4, [pc, #52]	@ (1000210c <irq_add_tail_to_free_list+0xac>)
100020d6:	505c      	str	r4, [r3, r1]
100020d8:	e7ef      	b.n	100020ba <irq_add_tail_to_free_list+0x5a>
100020da:	2400      	movs	r4, #0
100020dc:	0061      	lsls	r1, r4, #1
100020de:	1909      	adds	r1, r1, r4
100020e0:	0089      	lsls	r1, r1, #2
100020e2:	185b      	adds	r3, r3, r1
100020e4:	21ff      	movs	r1, #255	@ 0xff
100020e6:	7199      	strb	r1, [r3, #6]
100020e8:	4909      	ldr	r1, [pc, #36]	@ (10002110 <irq_add_tail_to_free_list+0xb0>)
100020ea:	8099      	strh	r1, [r3, #4]
100020ec:	e7e5      	b.n	100020ba <irq_add_tail_to_free_list+0x5a>
100020ee:	2401      	movs	r4, #1
100020f0:	e7f4      	b.n	100020dc <irq_add_tail_to_free_list+0x7c>
100020f2:	2402      	movs	r4, #2
100020f4:	e7f2      	b.n	100020dc <irq_add_tail_to_free_list+0x7c>
100020f6:	46c0      	nop			@ (mov r8, r8)
100020f8:	d0000124 	.word	0xd0000124
100020fc:	20000214 	.word	0x20000214
10002100:	0000aaaa 	.word	0x0000aaaa
10002104:	e000ed00 	.word	0xe000ed00
10002108:	20000c50 	.word	0x20000c50
1000210c:	100001cd 	.word	0x100001cd
10002110:	ffffbd01 	.word	0xffffbd01

10002114 <lock_init>:
10002114:	4b02      	ldr	r3, [pc, #8]	@ (10002120 <lock_init+0xc>)
10002116:	469c      	mov	ip, r3
10002118:	4461      	add	r1, ip
1000211a:	0089      	lsls	r1, r1, #2
1000211c:	6001      	str	r1, [r0, #0]
1000211e:	4770      	bx	lr
10002120:	34000040 	.word	0x34000040

10002124 <runtime_init_mutex>:
10002124:	b570      	push	{r4, r5, r6, lr}
10002126:	4c11      	ldr	r4, [pc, #68]	@ (1000216c <runtime_init_mutex+0x48>)
10002128:	4d11      	ldr	r5, [pc, #68]	@ (10002170 <runtime_init_mutex+0x4c>)
1000212a:	42ac      	cmp	r4, r5
1000212c:	d20f      	bcs.n	1000214e <runtime_init_mutex+0x2a>
1000212e:	26ff      	movs	r6, #255	@ 0xff
10002130:	6823      	ldr	r3, [r4, #0]
10002132:	2b00      	cmp	r3, #0
10002134:	d00c      	beq.n	10002150 <runtime_init_mutex+0x2c>
10002136:	f7ff fe41 	bl	10001dbc <next_striped_spin_lock_num>
1000213a:	0001      	movs	r1, r0
1000213c:	0020      	movs	r0, r4
1000213e:	f7ff ffe9 	bl	10002114 <lock_init>
10002142:	80a6      	strh	r6, [r4, #4]
10002144:	f3bf 8f5f 	dmb	sy
10002148:	3408      	adds	r4, #8
1000214a:	42ac      	cmp	r4, r5
1000214c:	d3f0      	bcc.n	10002130 <runtime_init_mutex+0xc>
1000214e:	bd70      	pop	{r4, r5, r6, pc}
10002150:	f7ff fe34 	bl	10001dbc <next_striped_spin_lock_num>
10002154:	0001      	movs	r1, r0
10002156:	0020      	movs	r0, r4
10002158:	f7ff ffdc 	bl	10002114 <lock_init>
1000215c:	7126      	strb	r6, [r4, #4]
1000215e:	f3bf 8f5f 	dmb	sy
10002162:	3408      	adds	r4, #8
10002164:	42ac      	cmp	r4, r5
10002166:	d3e3      	bcc.n	10002130 <runtime_init_mutex+0xc>
10002168:	e7f1      	b.n	1000214e <runtime_init_mutex+0x2a>
1000216a:	46c0      	nop			@ (mov r8, r8)
1000216c:	200002b8 	.word	0x200002b8
10002170:	200002c0 	.word	0x200002c0

10002174 <sleep_until_callback>:
10002174:	4b0a      	ldr	r3, [pc, #40]	@ (100021a0 <sleep_until_callback+0x2c>)
10002176:	6819      	ldr	r1, [r3, #0]
10002178:	f3ef 8010 	mrs	r0, PRIMASK
1000217c:	b672      	cpsid	i
1000217e:	680a      	ldr	r2, [r1, #0]
10002180:	2a00      	cmp	r2, #0
10002182:	d0fc      	beq.n	1000217e <sleep_until_callback+0xa>
10002184:	f3bf 8f5f 	dmb	sy
10002188:	681b      	ldr	r3, [r3, #0]
1000218a:	f3bf 8f5f 	dmb	sy
1000218e:	2200      	movs	r2, #0
10002190:	601a      	str	r2, [r3, #0]
10002192:	f380 8810 	msr	PRIMASK, r0
10002196:	bf40      	sev
10002198:	2000      	movs	r0, #0
1000219a:	2100      	movs	r1, #0
1000219c:	4770      	bx	lr
1000219e:	46c0      	nop			@ (mov r8, r8)
100021a0:	20000c2c 	.word	0x20000c2c

100021a4 <alarm_pool_irq_handler>:
100021a4:	b5f0      	push	{r4, r5, r6, r7, lr}
100021a6:	46de      	mov	lr, fp
100021a8:	4657      	mov	r7, sl
100021aa:	464e      	mov	r6, r9
100021ac:	4645      	mov	r5, r8
100021ae:	b5e0      	push	{r5, r6, r7, lr}
100021b0:	b083      	sub	sp, #12
100021b2:	f3ef 8305 	mrs	r3, IPSR
100021b6:	2203      	movs	r2, #3
100021b8:	401a      	ands	r2, r3
100021ba:	4693      	mov	fp, r2
100021bc:	4bae      	ldr	r3, [pc, #696]	@ (10002478 <alarm_pool_irq_handler+0x2d4>)
100021be:	0092      	lsls	r2, r2, #2
100021c0:	4cae      	ldr	r4, [pc, #696]	@ (1000247c <alarm_pool_irq_handler+0x2d8>)
100021c2:	58d3      	ldr	r3, [r2, r3]
100021c4:	0020      	movs	r0, r4
100021c6:	4698      	mov	r8, r3
100021c8:	f000 fc64 	bl	10002a94 <timer_time_us_64>
100021cc:	465a      	mov	r2, fp
100021ce:	2301      	movs	r3, #1
100021d0:	4093      	lsls	r3, r2
100021d2:	001a      	movs	r2, r3
100021d4:	9301      	str	r3, [sp, #4]
100021d6:	4baa      	ldr	r3, [pc, #680]	@ (10002480 <alarm_pool_irq_handler+0x2dc>)
100021d8:	601a      	str	r2, [r3, #0]
100021da:	4643      	mov	r3, r8
100021dc:	2508      	movs	r5, #8
100021de:	5f5b      	ldrsh	r3, [r3, r5]
100021e0:	6362      	str	r2, [r4, #52]	@ 0x34
100021e2:	4699      	mov	r9, r3
100021e4:	2b00      	cmp	r3, #0
100021e6:	db00      	blt.n	100021ea <alarm_pool_irq_handler+0x46>
100021e8:	e13e      	b.n	10002468 <alarm_pool_irq_handler+0x2c4>
100021ea:	4643      	mov	r3, r8
100021ec:	889b      	ldrh	r3, [r3, #4]
100021ee:	b21b      	sxth	r3, r3
100021f0:	2b00      	cmp	r3, #0
100021f2:	db00      	blt.n	100021f6 <alarm_pool_irq_handler+0x52>
100021f4:	e083      	b.n	100022fe <alarm_pool_irq_handler+0x15a>
100021f6:	4643      	mov	r3, r8
100021f8:	799b      	ldrb	r3, [r3, #6]
100021fa:	2b00      	cmp	r3, #0
100021fc:	d000      	beq.n	10002200 <alarm_pool_irq_handler+0x5c>
100021fe:	e0c5      	b.n	1000238c <alarm_pool_irq_handler+0x1e8>
10002200:	4c9e      	ldr	r4, [pc, #632]	@ (1000247c <alarm_pool_irq_handler+0x2d8>)
10002202:	0020      	movs	r0, r4
10002204:	f000 fc46 	bl	10002a94 <timer_time_us_64>
10002208:	4643      	mov	r3, r8
1000220a:	2208      	movs	r2, #8
1000220c:	5e9b      	ldrsh	r3, [r3, r2]
1000220e:	4699      	mov	r9, r3
10002210:	2b00      	cmp	r3, #0
10002212:	da00      	bge.n	10002216 <alarm_pool_irq_handler+0x72>
10002214:	e113      	b.n	1000243e <alarm_pool_irq_handler+0x29a>
10002216:	4643      	mov	r3, r8
10002218:	695d      	ldr	r5, [r3, #20]
1000221a:	464b      	mov	r3, r9
1000221c:	005a      	lsls	r2, r3, #1
1000221e:	18d3      	adds	r3, r2, r3
10002220:	00db      	lsls	r3, r3, #3
10002222:	18eb      	adds	r3, r5, r3
10002224:	689e      	ldr	r6, [r3, #8]
10002226:	68df      	ldr	r7, [r3, #12]
10002228:	465b      	mov	r3, fp
1000222a:	3304      	adds	r3, #4
1000222c:	009b      	lsls	r3, r3, #2
1000222e:	511e      	str	r6, [r3, r4]
10002230:	428f      	cmp	r7, r1
10002232:	dd00      	ble.n	10002236 <alarm_pool_irq_handler+0x92>
10002234:	e103      	b.n	1000243e <alarm_pool_irq_handler+0x29a>
10002236:	d100      	bne.n	1000223a <alarm_pool_irq_handler+0x96>
10002238:	e0fe      	b.n	10002438 <alarm_pool_irq_handler+0x294>
1000223a:	4b90      	ldr	r3, [pc, #576]	@ (1000247c <alarm_pool_irq_handler+0x2d8>)
1000223c:	9c01      	ldr	r4, [sp, #4]
1000223e:	635c      	str	r4, [r3, #52]	@ 0x34
10002240:	46aa      	mov	sl, r5
10002242:	444a      	add	r2, r9
10002244:	00d2      	lsls	r2, r2, #3
10002246:	4492      	add	sl, r2
10002248:	4653      	mov	r3, sl
1000224a:	689e      	ldr	r6, [r3, #8]
1000224c:	68df      	ldr	r7, [r3, #12]
1000224e:	428f      	cmp	r7, r1
10002250:	dccb      	bgt.n	100021ea <alarm_pool_irq_handler+0x46>
10002252:	d100      	bne.n	10002256 <alarm_pool_irq_handler+0xb2>
10002254:	e0ec      	b.n	10002430 <alarm_pool_irq_handler+0x28c>
10002256:	2f00      	cmp	r7, #0
10002258:	da00      	bge.n	1000225c <alarm_pool_irq_handler+0xb8>
1000225a:	e0cd      	b.n	100023f8 <alarm_pool_irq_handler+0x254>
1000225c:	4652      	mov	r2, sl
1000225e:	4653      	mov	r3, sl
10002260:	6954      	ldr	r4, [r2, #20]
10002262:	691b      	ldr	r3, [r3, #16]
10002264:	4a87      	ldr	r2, [pc, #540]	@ (10002484 <alarm_pool_irq_handler+0x2e0>)
10002266:	4293      	cmp	r3, r2
10002268:	d100      	bne.n	1000226c <alarm_pool_irq_handler+0xc8>
1000226a:	e0ef      	b.n	1000244c <alarm_pool_irq_handler+0x2a8>
1000226c:	4652      	mov	r2, sl
1000226e:	4649      	mov	r1, r9
10002270:	8852      	ldrh	r2, [r2, #2]
10002272:	0408      	lsls	r0, r1, #16
10002274:	4310      	orrs	r0, r2
10002276:	0021      	movs	r1, r4
10002278:	4798      	blx	r3
1000227a:	0004      	movs	r4, r0
1000227c:	000d      	movs	r5, r1
1000227e:	0023      	movs	r3, r4
10002280:	432b      	orrs	r3, r5
10002282:	d100      	bne.n	10002286 <alarm_pool_irq_handler+0xe2>
10002284:	e0b8      	b.n	100023f8 <alarm_pool_irq_handler+0x254>
10002286:	2d00      	cmp	r5, #0
10002288:	db00      	blt.n	1000228c <alarm_pool_irq_handler+0xe8>
1000228a:	e0e7      	b.n	1000245c <alarm_pool_irq_handler+0x2b8>
1000228c:	0030      	movs	r0, r6
1000228e:	0039      	movs	r1, r7
10002290:	1b00      	subs	r0, r0, r4
10002292:	41a9      	sbcs	r1, r5
10002294:	4653      	mov	r3, sl
10002296:	6098      	str	r0, [r3, #8]
10002298:	60d9      	str	r1, [r3, #12]
1000229a:	2200      	movs	r2, #0
1000229c:	5e9a      	ldrsh	r2, [r3, r2]
1000229e:	2a00      	cmp	r2, #0
100022a0:	dba3      	blt.n	100021ea <alarm_pool_irq_handler+0x46>
100022a2:	4643      	mov	r3, r8
100022a4:	695d      	ldr	r5, [r3, #20]
100022a6:	0053      	lsls	r3, r2, #1
100022a8:	189c      	adds	r4, r3, r2
100022aa:	00e4      	lsls	r4, r4, #3
100022ac:	192c      	adds	r4, r5, r4
100022ae:	68a7      	ldr	r7, [r4, #8]
100022b0:	68e4      	ldr	r4, [r4, #12]
100022b2:	428c      	cmp	r4, r1
100022b4:	dc99      	bgt.n	100021ea <alarm_pool_irq_handler+0x46>
100022b6:	d101      	bne.n	100022bc <alarm_pool_irq_handler+0x118>
100022b8:	4287      	cmp	r7, r0
100022ba:	d896      	bhi.n	100021ea <alarm_pool_irq_handler+0x46>
100022bc:	4646      	mov	r6, r8
100022be:	8132      	strh	r2, [r6, #8]
100022c0:	3608      	adds	r6, #8
100022c2:	e00d      	b.n	100022e0 <alarm_pool_irq_handler+0x13c>
100022c4:	428c      	cmp	r4, r1
100022c6:	d100      	bne.n	100022ca <alarm_pool_irq_handler+0x126>
100022c8:	e0d2      	b.n	10002470 <alarm_pool_irq_handler+0x2cc>
100022ca:	001e      	movs	r6, r3
100022cc:	2300      	movs	r3, #0
100022ce:	5ef2      	ldrsh	r2, [r6, r3]
100022d0:	2a00      	cmp	r2, #0
100022d2:	db0a      	blt.n	100022ea <alarm_pool_irq_handler+0x146>
100022d4:	0053      	lsls	r3, r2, #1
100022d6:	189c      	adds	r4, r3, r2
100022d8:	00e4      	lsls	r4, r4, #3
100022da:	192c      	adds	r4, r5, r4
100022dc:	68a7      	ldr	r7, [r4, #8]
100022de:	68e4      	ldr	r4, [r4, #12]
100022e0:	189b      	adds	r3, r3, r2
100022e2:	00db      	lsls	r3, r3, #3
100022e4:	18eb      	adds	r3, r5, r3
100022e6:	428c      	cmp	r4, r1
100022e8:	ddec      	ble.n	100022c4 <alarm_pool_irq_handler+0x120>
100022ea:	4653      	mov	r3, sl
100022ec:	801a      	strh	r2, [r3, #0]
100022ee:	464b      	mov	r3, r9
100022f0:	8033      	strh	r3, [r6, #0]
100022f2:	4643      	mov	r3, r8
100022f4:	889b      	ldrh	r3, [r3, #4]
100022f6:	b21b      	sxth	r3, r3
100022f8:	2b00      	cmp	r3, #0
100022fa:	da00      	bge.n	100022fe <alarm_pool_irq_handler+0x15a>
100022fc:	e77b      	b.n	100021f6 <alarm_pool_irq_handler+0x52>
100022fe:	4643      	mov	r3, r8
10002300:	691a      	ldr	r2, [r3, #16]
10002302:	f3ef 8110 	mrs	r1, PRIMASK
10002306:	b672      	cpsid	i
10002308:	6813      	ldr	r3, [r2, #0]
1000230a:	2b00      	cmp	r3, #0
1000230c:	d0fc      	beq.n	10002308 <alarm_pool_irq_handler+0x164>
1000230e:	f3bf 8f5f 	dmb	sy
10002312:	4643      	mov	r3, r8
10002314:	889e      	ldrh	r6, [r3, #4]
10002316:	2301      	movs	r3, #1
10002318:	4642      	mov	r2, r8
1000231a:	425b      	negs	r3, r3
1000231c:	8093      	strh	r3, [r2, #4]
1000231e:	b236      	sxth	r6, r6
10002320:	6913      	ldr	r3, [r2, #16]
10002322:	f3bf 8f5f 	dmb	sy
10002326:	2200      	movs	r2, #0
10002328:	601a      	str	r2, [r3, #0]
1000232a:	f381 8810 	msr	PRIMASK, r1
1000232e:	2e00      	cmp	r6, #0
10002330:	da00      	bge.n	10002334 <alarm_pool_irq_handler+0x190>
10002332:	e760      	b.n	100021f6 <alarm_pool_irq_handler+0x52>
10002334:	4643      	mov	r3, r8
10002336:	695d      	ldr	r5, [r3, #20]
10002338:	2308      	movs	r3, #8
1000233a:	4443      	add	r3, r8
1000233c:	469c      	mov	ip, r3
1000233e:	0074      	lsls	r4, r6, #1
10002340:	19a4      	adds	r4, r4, r6
10002342:	00e4      	lsls	r4, r4, #3
10002344:	192c      	adds	r4, r5, r4
10002346:	68a3      	ldr	r3, [r4, #8]
10002348:	4661      	mov	r1, ip
1000234a:	469a      	mov	sl, r3
1000234c:	4643      	mov	r3, r8
1000234e:	2208      	movs	r2, #8
10002350:	5e9a      	ldrsh	r2, [r3, r2]
10002352:	68e0      	ldr	r0, [r4, #12]
10002354:	2a00      	cmp	r2, #0
10002356:	da07      	bge.n	10002368 <alarm_pool_irq_handler+0x1c4>
10002358:	e00d      	b.n	10002376 <alarm_pool_irq_handler+0x1d2>
1000235a:	4287      	cmp	r7, r0
1000235c:	d042      	beq.n	100023e4 <alarm_pool_irq_handler+0x240>
1000235e:	0019      	movs	r1, r3
10002360:	2300      	movs	r3, #0
10002362:	5eca      	ldrsh	r2, [r1, r3]
10002364:	2a00      	cmp	r2, #0
10002366:	db06      	blt.n	10002376 <alarm_pool_irq_handler+0x1d2>
10002368:	0053      	lsls	r3, r2, #1
1000236a:	189b      	adds	r3, r3, r2
1000236c:	00db      	lsls	r3, r3, #3
1000236e:	18eb      	adds	r3, r5, r3
10002370:	68df      	ldr	r7, [r3, #12]
10002372:	4287      	cmp	r7, r0
10002374:	ddf1      	ble.n	1000235a <alarm_pool_irq_handler+0x1b6>
10002376:	800e      	strh	r6, [r1, #0]
10002378:	2300      	movs	r3, #0
1000237a:	5ee6      	ldrsh	r6, [r4, r3]
1000237c:	8022      	strh	r2, [r4, #0]
1000237e:	2e00      	cmp	r6, #0
10002380:	dadd      	bge.n	1000233e <alarm_pool_irq_handler+0x19a>
10002382:	4643      	mov	r3, r8
10002384:	799b      	ldrb	r3, [r3, #6]
10002386:	2b00      	cmp	r3, #0
10002388:	d100      	bne.n	1000238c <alarm_pool_irq_handler+0x1e8>
1000238a:	e739      	b.n	10002200 <alarm_pool_irq_handler+0x5c>
1000238c:	2300      	movs	r3, #0
1000238e:	4642      	mov	r2, r8
10002390:	7193      	strb	r3, [r2, #6]
10002392:	4643      	mov	r3, r8
10002394:	4645      	mov	r5, r8
10002396:	2608      	movs	r6, #8
10002398:	5f9e      	ldrsh	r6, [r3, r6]
1000239a:	3508      	adds	r5, #8
1000239c:	1c73      	adds	r3, r6, #1
1000239e:	d100      	bne.n	100023a2 <alarm_pool_irq_handler+0x1fe>
100023a0:	e72e      	b.n	10002200 <alarm_pool_irq_handler+0x5c>
100023a2:	6954      	ldr	r4, [r2, #20]
100023a4:	e003      	b.n	100023ae <alarm_pool_irq_handler+0x20a>
100023a6:	003d      	movs	r5, r7
100023a8:	1c73      	adds	r3, r6, #1
100023aa:	d100      	bne.n	100023ae <alarm_pool_irq_handler+0x20a>
100023ac:	e728      	b.n	10002200 <alarm_pool_irq_handler+0x5c>
100023ae:	0073      	lsls	r3, r6, #1
100023b0:	199b      	adds	r3, r3, r6
100023b2:	00db      	lsls	r3, r3, #3
100023b4:	18e7      	adds	r7, r4, r3
100023b6:	0032      	movs	r2, r6
100023b8:	5ee6      	ldrsh	r6, [r4, r3]
100023ba:	887b      	ldrh	r3, [r7, #2]
100023bc:	b21b      	sxth	r3, r3
100023be:	2b00      	cmp	r3, #0
100023c0:	daf1      	bge.n	100023a6 <alarm_pool_irq_handler+0x202>
100023c2:	2001      	movs	r0, #1
100023c4:	4240      	negs	r0, r0
100023c6:	17c1      	asrs	r1, r0, #31
100023c8:	4643      	mov	r3, r8
100023ca:	60b8      	str	r0, [r7, #8]
100023cc:	60f9      	str	r1, [r7, #12]
100023ce:	2108      	movs	r1, #8
100023d0:	5e5b      	ldrsh	r3, [r3, r1]
100023d2:	4293      	cmp	r3, r2
100023d4:	d0e8      	beq.n	100023a8 <alarm_pool_irq_handler+0x204>
100023d6:	4643      	mov	r3, r8
100023d8:	802e      	strh	r6, [r5, #0]
100023da:	891b      	ldrh	r3, [r3, #8]
100023dc:	803b      	strh	r3, [r7, #0]
100023de:	4643      	mov	r3, r8
100023e0:	811a      	strh	r2, [r3, #8]
100023e2:	e7e1      	b.n	100023a8 <alarm_pool_irq_handler+0x204>
100023e4:	689f      	ldr	r7, [r3, #8]
100023e6:	4557      	cmp	r7, sl
100023e8:	d9b9      	bls.n	1000235e <alarm_pool_irq_handler+0x1ba>
100023ea:	800e      	strh	r6, [r1, #0]
100023ec:	2300      	movs	r3, #0
100023ee:	5ee6      	ldrsh	r6, [r4, r3]
100023f0:	8022      	strh	r2, [r4, #0]
100023f2:	2e00      	cmp	r6, #0
100023f4:	daa3      	bge.n	1000233e <alarm_pool_irq_handler+0x19a>
100023f6:	e7c4      	b.n	10002382 <alarm_pool_irq_handler+0x1de>
100023f8:	4653      	mov	r3, sl
100023fa:	4642      	mov	r2, r8
100023fc:	881b      	ldrh	r3, [r3, #0]
100023fe:	8113      	strh	r3, [r2, #8]
10002400:	6912      	ldr	r2, [r2, #16]
10002402:	f3ef 8310 	mrs	r3, PRIMASK
10002406:	b672      	cpsid	i
10002408:	6811      	ldr	r1, [r2, #0]
1000240a:	2900      	cmp	r1, #0
1000240c:	d0fc      	beq.n	10002408 <alarm_pool_irq_handler+0x264>
1000240e:	f3bf 8f5f 	dmb	sy
10002412:	4642      	mov	r2, r8
10002414:	4651      	mov	r1, sl
10002416:	8852      	ldrh	r2, [r2, #2]
10002418:	800a      	strh	r2, [r1, #0]
1000241a:	4642      	mov	r2, r8
1000241c:	4649      	mov	r1, r9
1000241e:	8051      	strh	r1, [r2, #2]
10002420:	6912      	ldr	r2, [r2, #16]
10002422:	f3bf 8f5f 	dmb	sy
10002426:	2100      	movs	r1, #0
10002428:	6011      	str	r1, [r2, #0]
1000242a:	f383 8810 	msr	PRIMASK, r3
1000242e:	e6dc      	b.n	100021ea <alarm_pool_irq_handler+0x46>
10002430:	4286      	cmp	r6, r0
10002432:	d800      	bhi.n	10002436 <alarm_pool_irq_handler+0x292>
10002434:	e70f      	b.n	10002256 <alarm_pool_irq_handler+0xb2>
10002436:	e6d8      	b.n	100021ea <alarm_pool_irq_handler+0x46>
10002438:	4286      	cmp	r6, r0
1000243a:	d800      	bhi.n	1000243e <alarm_pool_irq_handler+0x29a>
1000243c:	e6fd      	b.n	1000223a <alarm_pool_irq_handler+0x96>
1000243e:	b003      	add	sp, #12
10002440:	bcf0      	pop	{r4, r5, r6, r7}
10002442:	46bb      	mov	fp, r7
10002444:	46b2      	mov	sl, r6
10002446:	46a9      	mov	r9, r5
10002448:	46a0      	mov	r8, r4
1000244a:	bdf0      	pop	{r4, r5, r6, r7, pc}
1000244c:	0020      	movs	r0, r4
1000244e:	6923      	ldr	r3, [r4, #16]
10002450:	4798      	blx	r3
10002452:	2800      	cmp	r0, #0
10002454:	d0d0      	beq.n	100023f8 <alarm_pool_irq_handler+0x254>
10002456:	6865      	ldr	r5, [r4, #4]
10002458:	6824      	ldr	r4, [r4, #0]
1000245a:	e710      	b.n	1000227e <alarm_pool_irq_handler+0xda>
1000245c:	4807      	ldr	r0, [pc, #28]	@ (1000247c <alarm_pool_irq_handler+0x2d8>)
1000245e:	f000 fb19 	bl	10002a94 <timer_time_us_64>
10002462:	1900      	adds	r0, r0, r4
10002464:	4169      	adcs	r1, r5
10002466:	e715      	b.n	10002294 <alarm_pool_irq_handler+0xf0>
10002468:	005a      	lsls	r2, r3, #1
1000246a:	4643      	mov	r3, r8
1000246c:	695d      	ldr	r5, [r3, #20]
1000246e:	e6e7      	b.n	10002240 <alarm_pool_irq_handler+0x9c>
10002470:	4287      	cmp	r7, r0
10002472:	d800      	bhi.n	10002476 <alarm_pool_irq_handler+0x2d2>
10002474:	e729      	b.n	100022ca <alarm_pool_irq_handler+0x126>
10002476:	e738      	b.n	100022ea <alarm_pool_irq_handler+0x146>
10002478:	20000830 	.word	0x20000830
1000247c:	40054000 	.word	0x40054000
10002480:	4005703c 	.word	0x4005703c
10002484:	100021a5 	.word	0x100021a5

10002488 <runtime_init_default_alarm_pool>:
10002488:	b570      	push	{r4, r5, r6, lr}
1000248a:	4c2e      	ldr	r4, [pc, #184]	@ (10002544 <runtime_init_default_alarm_pool+0xbc>)
1000248c:	6925      	ldr	r5, [r4, #16]
1000248e:	2d00      	cmp	r5, #0
10002490:	d004      	beq.n	1000249c <runtime_init_default_alarm_pool+0x14>
10002492:	210a      	movs	r1, #10
10002494:	482c      	ldr	r0, [pc, #176]	@ (10002548 <runtime_init_default_alarm_pool+0xc0>)
10002496:	f7ff fe3d 	bl	10002114 <lock_init>
1000249a:	bd70      	pop	{r4, r5, r6, pc}
1000249c:	4e2b      	ldr	r6, [pc, #172]	@ (1000254c <runtime_init_default_alarm_pool+0xc4>)
1000249e:	2103      	movs	r1, #3
100024a0:	0030      	movs	r0, r6
100024a2:	f000 faed 	bl	10002a80 <timer_hardware_alarm_claim>
100024a6:	60e6      	str	r6, [r4, #12]
100024a8:	f7ff fc88 	bl	10001dbc <next_striped_spin_lock_num>
100024ac:	4b28      	ldr	r3, [pc, #160]	@ (10002550 <runtime_init_default_alarm_pool+0xc8>)
100024ae:	2203      	movs	r2, #3
100024b0:	469c      	mov	ip, r3
100024b2:	23d0      	movs	r3, #208	@ 0xd0
100024b4:	7022      	strb	r2, [r4, #0]
100024b6:	061b      	lsls	r3, r3, #24
100024b8:	681b      	ldr	r3, [r3, #0]
100024ba:	2101      	movs	r1, #1
100024bc:	7063      	strb	r3, [r4, #1]
100024be:	4b25      	ldr	r3, [pc, #148]	@ (10002554 <runtime_init_default_alarm_pool+0xcc>)
100024c0:	4460      	add	r0, ip
100024c2:	60a3      	str	r3, [r4, #8]
100024c4:	230f      	movs	r3, #15
100024c6:	0080      	lsls	r0, r0, #2
100024c8:	6120      	str	r0, [r4, #16]
100024ca:	2002      	movs	r0, #2
100024cc:	8063      	strh	r3, [r4, #2]
100024ce:	6963      	ldr	r3, [r4, #20]
100024d0:	4249      	negs	r1, r1
100024d2:	80a1      	strh	r1, [r4, #4]
100024d4:	8019      	strh	r1, [r3, #0]
100024d6:	3102      	adds	r1, #2
100024d8:	8619      	strh	r1, [r3, #48]	@ 0x30
100024da:	3147      	adds	r1, #71	@ 0x47
100024dc:	831d      	strh	r5, [r3, #24]
100024de:	5258      	strh	r0, [r3, r1]
100024e0:	3118      	adds	r1, #24
100024e2:	525a      	strh	r2, [r3, r1]
100024e4:	3275      	adds	r2, #117	@ 0x75
100024e6:	395c      	subs	r1, #92	@ 0x5c
100024e8:	5299      	strh	r1, [r3, r2]
100024ea:	3218      	adds	r2, #24
100024ec:	3101      	adds	r1, #1
100024ee:	5299      	strh	r1, [r3, r2]
100024f0:	3218      	adds	r2, #24
100024f2:	3101      	adds	r1, #1
100024f4:	5299      	strh	r1, [r3, r2]
100024f6:	3218      	adds	r2, #24
100024f8:	3101      	adds	r1, #1
100024fa:	5299      	strh	r1, [r3, r2]
100024fc:	3508      	adds	r5, #8
100024fe:	3218      	adds	r2, #24
10002500:	529d      	strh	r5, [r3, r2]
10002502:	3102      	adds	r1, #2
10002504:	3218      	adds	r2, #24
10002506:	5299      	strh	r1, [r3, r2]
10002508:	3218      	adds	r2, #24
1000250a:	3101      	adds	r1, #1
1000250c:	5299      	strh	r1, [r3, r2]
1000250e:	3218      	adds	r2, #24
10002510:	3101      	adds	r1, #1
10002512:	5299      	strh	r1, [r3, r2]
10002514:	3218      	adds	r2, #24
10002516:	3101      	adds	r1, #1
10002518:	5299      	strh	r1, [r3, r2]
1000251a:	3218      	adds	r2, #24
1000251c:	3101      	adds	r1, #1
1000251e:	5299      	strh	r1, [r3, r2]
10002520:	3218      	adds	r2, #24
10002522:	3101      	adds	r1, #1
10002524:	5299      	strh	r1, [r3, r2]
10002526:	4b0c      	ldr	r3, [pc, #48]	@ (10002558 <runtime_init_default_alarm_pool+0xd0>)
10002528:	490c      	ldr	r1, [pc, #48]	@ (1000255c <runtime_init_default_alarm_pool+0xd4>)
1000252a:	60dc      	str	r4, [r3, #12]
1000252c:	3001      	adds	r0, #1
1000252e:	6235      	str	r5, [r6, #32]
10002530:	f7ff fc82 	bl	10001e38 <irq_set_exclusive_handler>
10002534:	2101      	movs	r1, #1
10002536:	2003      	movs	r0, #3
10002538:	f7ff fc6c 	bl	10001e14 <irq_set_enabled>
1000253c:	4b08      	ldr	r3, [pc, #32]	@ (10002560 <runtime_init_default_alarm_pool+0xd8>)
1000253e:	601d      	str	r5, [r3, #0]
10002540:	e7a7      	b.n	10002492 <runtime_init_default_alarm_pool+0xa>
10002542:	46c0      	nop			@ (mov r8, r8)
10002544:	2000025c 	.word	0x2000025c
10002548:	20000c2c 	.word	0x20000c2c
1000254c:	40054000 	.word	0x40054000
10002550:	34000040 	.word	0x34000040
10002554:	0010ffff 	.word	0x0010ffff
10002558:	20000830 	.word	0x20000830
1000255c:	100021a5 	.word	0x100021a5
10002560:	40056038 	.word	0x40056038

10002564 <alarm_pool_get_default>:
10002564:	4800      	ldr	r0, [pc, #0]	@ (10002568 <alarm_pool_get_default+0x4>)
10002566:	4770      	bx	lr
10002568:	2000025c 	.word	0x2000025c

1000256c <alarm_pool_add_alarm_at_force_in_context>:
1000256c:	b570      	push	{r4, r5, r6, lr}
1000256e:	0001      	movs	r1, r0
10002570:	6904      	ldr	r4, [r0, #16]
10002572:	f3ef 8c10 	mrs	ip, PRIMASK
10002576:	b672      	cpsid	i
10002578:	6820      	ldr	r0, [r4, #0]
1000257a:	2800      	cmp	r0, #0
1000257c:	d0fc      	beq.n	10002578 <alarm_pool_add_alarm_at_force_in_context+0xc>
1000257e:	f3bf 8f5f 	dmb	sy
10002582:	2002      	movs	r0, #2
10002584:	5e0d      	ldrsh	r5, [r1, r0]
10002586:	694c      	ldr	r4, [r1, #20]
10002588:	0068      	lsls	r0, r5, #1
1000258a:	1940      	adds	r0, r0, r5
1000258c:	00c0      	lsls	r0, r0, #3
1000258e:	1824      	adds	r4, r4, r0
10002590:	2d00      	cmp	r5, #0
10002592:	db37      	blt.n	10002604 <alarm_pool_add_alarm_at_force_in_context+0x98>
10002594:	8820      	ldrh	r0, [r4, #0]
10002596:	8048      	strh	r0, [r1, #2]
10002598:	6908      	ldr	r0, [r1, #16]
1000259a:	f3bf 8f5f 	dmb	sy
1000259e:	2600      	movs	r6, #0
100025a0:	6006      	str	r6, [r0, #0]
100025a2:	f38c 8810 	msr	PRIMASK, ip
100025a6:	60e3      	str	r3, [r4, #12]
100025a8:	8863      	ldrh	r3, [r4, #2]
100025aa:	9804      	ldr	r0, [sp, #16]
100025ac:	3301      	adds	r3, #1
100025ae:	6120      	str	r0, [r4, #16]
100025b0:	045b      	lsls	r3, r3, #17
100025b2:	9805      	ldr	r0, [sp, #20]
100025b4:	0c5b      	lsrs	r3, r3, #17
100025b6:	60a2      	str	r2, [r4, #8]
100025b8:	6160      	str	r0, [r4, #20]
100025ba:	1c1a      	adds	r2, r3, #0
100025bc:	2b00      	cmp	r3, #0
100025be:	d01f      	beq.n	10002600 <alarm_pool_add_alarm_at_force_in_context+0x94>
100025c0:	b293      	uxth	r3, r2
100025c2:	0428      	lsls	r0, r5, #16
100025c4:	8062      	strh	r2, [r4, #2]
100025c6:	4318      	orrs	r0, r3
100025c8:	690a      	ldr	r2, [r1, #16]
100025ca:	f3ef 8c10 	mrs	ip, PRIMASK
100025ce:	b672      	cpsid	i
100025d0:	6813      	ldr	r3, [r2, #0]
100025d2:	2b00      	cmp	r3, #0
100025d4:	d0fc      	beq.n	100025d0 <alarm_pool_add_alarm_at_force_in_context+0x64>
100025d6:	f3bf 8f5f 	dmb	sy
100025da:	888b      	ldrh	r3, [r1, #4]
100025dc:	8023      	strh	r3, [r4, #0]
100025de:	808d      	strh	r5, [r1, #4]
100025e0:	690b      	ldr	r3, [r1, #16]
100025e2:	f3bf 8f5f 	dmb	sy
100025e6:	2200      	movs	r2, #0
100025e8:	601a      	str	r2, [r3, #0]
100025ea:	f38c 8810 	msr	PRIMASK, ip
100025ee:	780b      	ldrb	r3, [r1, #0]
100025f0:	3201      	adds	r2, #1
100025f2:	409a      	lsls	r2, r3
100025f4:	68cb      	ldr	r3, [r1, #12]
100025f6:	4908      	ldr	r1, [pc, #32]	@ (10002618 <alarm_pool_add_alarm_at_force_in_context+0xac>)
100025f8:	468c      	mov	ip, r1
100025fa:	4463      	add	r3, ip
100025fc:	601a      	str	r2, [r3, #0]
100025fe:	bd70      	pop	{r4, r5, r6, pc}
10002600:	2201      	movs	r2, #1
10002602:	e7dd      	b.n	100025c0 <alarm_pool_add_alarm_at_force_in_context+0x54>
10002604:	690b      	ldr	r3, [r1, #16]
10002606:	f3bf 8f5f 	dmb	sy
1000260a:	2200      	movs	r2, #0
1000260c:	601a      	str	r2, [r3, #0]
1000260e:	f38c 8810 	msr	PRIMASK, ip
10002612:	2001      	movs	r0, #1
10002614:	4240      	negs	r0, r0
10002616:	e7f2      	b.n	100025fe <alarm_pool_add_alarm_at_force_in_context+0x92>
10002618:	0000203c 	.word	0x0000203c

1000261c <alarm_pool_cancel_alarm>:
1000261c:	b510      	push	{r4, lr}
1000261e:	8943      	ldrh	r3, [r0, #10]
10002620:	140a      	asrs	r2, r1, #16
10002622:	4293      	cmp	r3, r2
10002624:	dd1a      	ble.n	1000265c <alarm_pool_cancel_alarm+0x40>
10002626:	0053      	lsls	r3, r2, #1
10002628:	189b      	adds	r3, r3, r2
1000262a:	6942      	ldr	r2, [r0, #20]
1000262c:	00db      	lsls	r3, r3, #3
1000262e:	18d3      	adds	r3, r2, r3
10002630:	6904      	ldr	r4, [r0, #16]
10002632:	f3ef 8c10 	mrs	ip, PRIMASK
10002636:	b672      	cpsid	i
10002638:	6822      	ldr	r2, [r4, #0]
1000263a:	2a00      	cmp	r2, #0
1000263c:	d0fc      	beq.n	10002638 <alarm_pool_cancel_alarm+0x1c>
1000263e:	f3bf 8f5f 	dmb	sy
10002642:	885a      	ldrh	r2, [r3, #2]
10002644:	0409      	lsls	r1, r1, #16
10002646:	b294      	uxth	r4, r2
10002648:	0c09      	lsrs	r1, r1, #16
1000264a:	428a      	cmp	r2, r1
1000264c:	d008      	beq.n	10002660 <alarm_pool_cancel_alarm+0x44>
1000264e:	6903      	ldr	r3, [r0, #16]
10002650:	f3bf 8f5f 	dmb	sy
10002654:	2200      	movs	r2, #0
10002656:	601a      	str	r2, [r3, #0]
10002658:	f38c 8810 	msr	PRIMASK, ip
1000265c:	2000      	movs	r0, #0
1000265e:	bd10      	pop	{r4, pc}
10002660:	2280      	movs	r2, #128	@ 0x80
10002662:	0212      	lsls	r2, r2, #8
10002664:	4314      	orrs	r4, r2
10002666:	805c      	strh	r4, [r3, #2]
10002668:	2301      	movs	r3, #1
1000266a:	6902      	ldr	r2, [r0, #16]
1000266c:	7183      	strb	r3, [r0, #6]
1000266e:	f3bf 8f5f 	dmb	sy
10002672:	2100      	movs	r1, #0
10002674:	6011      	str	r1, [r2, #0]
10002676:	f38c 8810 	msr	PRIMASK, ip
1000267a:	4904      	ldr	r1, [pc, #16]	@ (1000268c <alarm_pool_cancel_alarm+0x70>)
1000267c:	7802      	ldrb	r2, [r0, #0]
1000267e:	468c      	mov	ip, r1
10002680:	4093      	lsls	r3, r2
10002682:	68c2      	ldr	r2, [r0, #12]
10002684:	2001      	movs	r0, #1
10002686:	4462      	add	r2, ip
10002688:	6013      	str	r3, [r2, #0]
1000268a:	e7e8      	b.n	1000265e <alarm_pool_cancel_alarm+0x42>
1000268c:	0000203c 	.word	0x0000203c

10002690 <sleep_until>:
10002690:	b5f0      	push	{r4, r5, r6, r7, lr}
10002692:	0004      	movs	r4, r0
10002694:	000d      	movs	r5, r1
10002696:	2606      	movs	r6, #6
10002698:	4276      	negs	r6, r6
1000269a:	17f7      	asrs	r7, r6, #31
1000269c:	46c6      	mov	lr, r8
1000269e:	1936      	adds	r6, r6, r4
100026a0:	416f      	adcs	r7, r5
100026a2:	b500      	push	{lr}
100026a4:	b082      	sub	sp, #8
100026a6:	428f      	cmp	r7, r1
100026a8:	d814      	bhi.n	100026d4 <sleep_until+0x44>
100026aa:	d011      	beq.n	100026d0 <sleep_until+0x40>
100026ac:	f000 f9fa 	bl	10002aa4 <time_us_64>
100026b0:	0032      	movs	r2, r6
100026b2:	003b      	movs	r3, r7
100026b4:	1a12      	subs	r2, r2, r0
100026b6:	418b      	sbcs	r3, r1
100026b8:	2b00      	cmp	r3, #0
100026ba:	dc17      	bgt.n	100026ec <sleep_until+0x5c>
100026bc:	2b00      	cmp	r3, #0
100026be:	d047      	beq.n	10002750 <sleep_until+0xc0>
100026c0:	0020      	movs	r0, r4
100026c2:	0029      	movs	r1, r5
100026c4:	f000 fa2c 	bl	10002b20 <busy_wait_until>
100026c8:	b002      	add	sp, #8
100026ca:	bc80      	pop	{r7}
100026cc:	46b8      	mov	r8, r7
100026ce:	bdf0      	pop	{r4, r5, r6, r7, pc}
100026d0:	4286      	cmp	r6, r0
100026d2:	d9eb      	bls.n	100026ac <sleep_until+0x1c>
100026d4:	2200      	movs	r2, #0
100026d6:	2300      	movs	r3, #0
100026d8:	0016      	movs	r6, r2
100026da:	001f      	movs	r7, r3
100026dc:	f000 f9e2 	bl	10002aa4 <time_us_64>
100026e0:	0032      	movs	r2, r6
100026e2:	003b      	movs	r3, r7
100026e4:	1a12      	subs	r2, r2, r0
100026e6:	418b      	sbcs	r3, r1
100026e8:	2b00      	cmp	r3, #0
100026ea:	dde7      	ble.n	100026bc <sleep_until+0x2c>
100026ec:	f000 f9da 	bl	10002aa4 <time_us_64>
100026f0:	0032      	movs	r2, r6
100026f2:	003b      	movs	r3, r7
100026f4:	1a12      	subs	r2, r2, r0
100026f6:	418b      	sbcs	r3, r1
100026f8:	2b00      	cmp	r3, #0
100026fa:	db0a      	blt.n	10002712 <sleep_until+0x82>
100026fc:	2300      	movs	r3, #0
100026fe:	9301      	str	r3, [sp, #4]
10002700:	4b15      	ldr	r3, [pc, #84]	@ (10002758 <sleep_until+0xc8>)
10002702:	0032      	movs	r2, r6
10002704:	9300      	str	r3, [sp, #0]
10002706:	4815      	ldr	r0, [pc, #84]	@ (1000275c <sleep_until+0xcc>)
10002708:	003b      	movs	r3, r7
1000270a:	f7ff ff2f 	bl	1000256c <alarm_pool_add_alarm_at_force_in_context>
1000270e:	2800      	cmp	r0, #0
10002710:	dbd6      	blt.n	100026c0 <sleep_until+0x30>
10002712:	2300      	movs	r3, #0
10002714:	469c      	mov	ip, r3
10002716:	46b0      	mov	r8, r6
10002718:	4a11      	ldr	r2, [pc, #68]	@ (10002760 <sleep_until+0xd0>)
1000271a:	4e12      	ldr	r6, [pc, #72]	@ (10002764 <sleep_until+0xd4>)
1000271c:	6a73      	ldr	r3, [r6, #36]	@ 0x24
1000271e:	429f      	cmp	r7, r3
10002720:	d804      	bhi.n	1000272c <sleep_until+0x9c>
10002722:	6ab1      	ldr	r1, [r6, #40]	@ 0x28
10002724:	4588      	cmp	r8, r1
10002726:	d9cb      	bls.n	100026c0 <sleep_until+0x30>
10002728:	429f      	cmp	r7, r3
1000272a:	d1c9      	bne.n	100026c0 <sleep_until+0x30>
1000272c:	6811      	ldr	r1, [r2, #0]
1000272e:	f3ef 8010 	mrs	r0, PRIMASK
10002732:	b672      	cpsid	i
10002734:	680b      	ldr	r3, [r1, #0]
10002736:	2b00      	cmp	r3, #0
10002738:	d0fc      	beq.n	10002734 <sleep_until+0xa4>
1000273a:	f3bf 8f5f 	dmb	sy
1000273e:	6813      	ldr	r3, [r2, #0]
10002740:	f3bf 8f5f 	dmb	sy
10002744:	4661      	mov	r1, ip
10002746:	6019      	str	r1, [r3, #0]
10002748:	f380 8810 	msr	PRIMASK, r0
1000274c:	bf20      	wfe
1000274e:	e7e5      	b.n	1000271c <sleep_until+0x8c>
10002750:	2a00      	cmp	r2, #0
10002752:	d0b5      	beq.n	100026c0 <sleep_until+0x30>
10002754:	e7ca      	b.n	100026ec <sleep_until+0x5c>
10002756:	46c0      	nop			@ (mov r8, r8)
10002758:	10002175 	.word	0x10002175
1000275c:	2000025c 	.word	0x2000025c
10002760:	20000c2c 	.word	0x20000c2c
10002764:	40054000 	.word	0x40054000

10002768 <sleep_ms>:
10002768:	b570      	push	{r4, r5, r6, lr}
1000276a:	0006      	movs	r6, r0
1000276c:	f000 f99a 	bl	10002aa4 <time_us_64>
10002770:	22fa      	movs	r2, #250	@ 0xfa
10002772:	0004      	movs	r4, r0
10002774:	000d      	movs	r5, r1
10002776:	2300      	movs	r3, #0
10002778:	0030      	movs	r0, r6
1000277a:	2100      	movs	r1, #0
1000277c:	0092      	lsls	r2, r2, #2
1000277e:	f000 fe35 	bl	100033ec <__wrap___aeabi_lmul>
10002782:	2380      	movs	r3, #128	@ 0x80
10002784:	1900      	adds	r0, r0, r4
10002786:	4169      	adcs	r1, r5
10002788:	061b      	lsls	r3, r3, #24
1000278a:	4299      	cmp	r1, r3
1000278c:	d302      	bcc.n	10002794 <sleep_ms+0x2c>
1000278e:	2001      	movs	r0, #1
10002790:	4902      	ldr	r1, [pc, #8]	@ (1000279c <sleep_ms+0x34>)
10002792:	4240      	negs	r0, r0
10002794:	f7ff ff7c 	bl	10002690 <sleep_until>
10002798:	bd70      	pop	{r4, r5, r6, pc}
1000279a:	46c0      	nop			@ (mov r8, r8)
1000279c:	7fffffff 	.word	0x7fffffff

100027a0 <best_effort_wfe_or_timeout>:
100027a0:	b5f0      	push	{r4, r5, r6, r7, lr}
100027a2:	46c6      	mov	lr, r8
100027a4:	0004      	movs	r4, r0
100027a6:	000d      	movs	r5, r1
100027a8:	b500      	push	{lr}
100027aa:	f3ef 8305 	mrs	r3, IPSR
100027ae:	000e      	movs	r6, r1
100027b0:	2b00      	cmp	r3, #0
100027b2:	d00c      	beq.n	100027ce <best_effort_wfe_or_timeout+0x2e>
100027b4:	4943      	ldr	r1, [pc, #268]	@ (100028c4 <best_effort_wfe_or_timeout+0x124>)
100027b6:	2000      	movs	r0, #0
100027b8:	6a4b      	ldr	r3, [r1, #36]	@ 0x24
100027ba:	42ab      	cmp	r3, r5
100027bc:	d304      	bcc.n	100027c8 <best_effort_wfe_or_timeout+0x28>
100027be:	6a8a      	ldr	r2, [r1, #40]	@ 0x28
100027c0:	3001      	adds	r0, #1
100027c2:	42a2      	cmp	r2, r4
100027c4:	d200      	bcs.n	100027c8 <best_effort_wfe_or_timeout+0x28>
100027c6:	e06a      	b.n	1000289e <best_effort_wfe_or_timeout+0xfe>
100027c8:	bc80      	pop	{r7}
100027ca:	46b8      	mov	r8, r7
100027cc:	bdf0      	pop	{r4, r5, r6, r7, pc}
100027ce:	f000 f969 	bl	10002aa4 <time_us_64>
100027d2:	0022      	movs	r2, r4
100027d4:	002b      	movs	r3, r5
100027d6:	1a12      	subs	r2, r2, r0
100027d8:	418b      	sbcs	r3, r1
100027da:	2b00      	cmp	r3, #0
100027dc:	db54      	blt.n	10002888 <best_effort_wfe_or_timeout+0xe8>
100027de:	483a      	ldr	r0, [pc, #232]	@ (100028c8 <best_effort_wfe_or_timeout+0x128>)
100027e0:	6902      	ldr	r2, [r0, #16]
100027e2:	f3ef 8810 	mrs	r8, PRIMASK
100027e6:	b672      	cpsid	i
100027e8:	6813      	ldr	r3, [r2, #0]
100027ea:	2b00      	cmp	r3, #0
100027ec:	d0fc      	beq.n	100027e8 <best_effort_wfe_or_timeout+0x48>
100027ee:	f3bf 8f5f 	dmb	sy
100027f2:	2302      	movs	r3, #2
100027f4:	5ec7      	ldrsh	r7, [r0, r3]
100027f6:	6943      	ldr	r3, [r0, #20]
100027f8:	007a      	lsls	r2, r7, #1
100027fa:	19d2      	adds	r2, r2, r7
100027fc:	00d2      	lsls	r2, r2, #3
100027fe:	189b      	adds	r3, r3, r2
10002800:	2f00      	cmp	r7, #0
10002802:	db57      	blt.n	100028b4 <best_effort_wfe_or_timeout+0x114>
10002804:	881a      	ldrh	r2, [r3, #0]
10002806:	8042      	strh	r2, [r0, #2]
10002808:	6902      	ldr	r2, [r0, #16]
1000280a:	4694      	mov	ip, r2
1000280c:	f3bf 8f5f 	dmb	sy
10002810:	2200      	movs	r2, #0
10002812:	4661      	mov	r1, ip
10002814:	600a      	str	r2, [r1, #0]
10002816:	f388 8810 	msr	PRIMASK, r8
1000281a:	615a      	str	r2, [r3, #20]
1000281c:	885a      	ldrh	r2, [r3, #2]
1000281e:	492b      	ldr	r1, [pc, #172]	@ (100028cc <best_effort_wfe_or_timeout+0x12c>)
10002820:	3201      	adds	r2, #1
10002822:	0452      	lsls	r2, r2, #17
10002824:	0c52      	lsrs	r2, r2, #17
10002826:	6119      	str	r1, [r3, #16]
10002828:	609c      	str	r4, [r3, #8]
1000282a:	60dd      	str	r5, [r3, #12]
1000282c:	1c11      	adds	r1, r2, #0
1000282e:	2a00      	cmp	r2, #0
10002830:	d100      	bne.n	10002834 <best_effort_wfe_or_timeout+0x94>
10002832:	2101      	movs	r1, #1
10002834:	b28a      	uxth	r2, r1
10002836:	8059      	strh	r1, [r3, #2]
10002838:	0439      	lsls	r1, r7, #16
1000283a:	4311      	orrs	r1, r2
1000283c:	6902      	ldr	r2, [r0, #16]
1000283e:	4694      	mov	ip, r2
10002840:	f3ef 8810 	mrs	r8, PRIMASK
10002844:	b672      	cpsid	i
10002846:	4662      	mov	r2, ip
10002848:	6812      	ldr	r2, [r2, #0]
1000284a:	2a00      	cmp	r2, #0
1000284c:	d0fb      	beq.n	10002846 <best_effort_wfe_or_timeout+0xa6>
1000284e:	f3bf 8f5f 	dmb	sy
10002852:	8882      	ldrh	r2, [r0, #4]
10002854:	801a      	strh	r2, [r3, #0]
10002856:	6903      	ldr	r3, [r0, #16]
10002858:	8087      	strh	r7, [r0, #4]
1000285a:	f3bf 8f5f 	dmb	sy
1000285e:	2200      	movs	r2, #0
10002860:	601a      	str	r2, [r3, #0]
10002862:	f388 8810 	msr	PRIMASK, r8
10002866:	4f1a      	ldr	r7, [pc, #104]	@ (100028d0 <best_effort_wfe_or_timeout+0x130>)
10002868:	7803      	ldrb	r3, [r0, #0]
1000286a:	46bc      	mov	ip, r7
1000286c:	3201      	adds	r2, #1
1000286e:	409a      	lsls	r2, r3
10002870:	68c3      	ldr	r3, [r0, #12]
10002872:	4463      	add	r3, ip
10002874:	601a      	str	r2, [r3, #0]
10002876:	bf40      	sev
10002878:	bf20      	wfe
1000287a:	4b12      	ldr	r3, [pc, #72]	@ (100028c4 <best_effort_wfe_or_timeout+0x124>)
1000287c:	6a5a      	ldr	r2, [r3, #36]	@ 0x24
1000287e:	42b2      	cmp	r2, r6
10002880:	d212      	bcs.n	100028a8 <best_effort_wfe_or_timeout+0x108>
10002882:	bf20      	wfe
10002884:	f7ff feca 	bl	1000261c <alarm_pool_cancel_alarm>
10002888:	4a0e      	ldr	r2, [pc, #56]	@ (100028c4 <best_effort_wfe_or_timeout+0x124>)
1000288a:	2000      	movs	r0, #0
1000288c:	6a53      	ldr	r3, [r2, #36]	@ 0x24
1000288e:	42b3      	cmp	r3, r6
10002890:	d200      	bcs.n	10002894 <best_effort_wfe_or_timeout+0xf4>
10002892:	e799      	b.n	100027c8 <best_effort_wfe_or_timeout+0x28>
10002894:	6a92      	ldr	r2, [r2, #40]	@ 0x28
10002896:	3001      	adds	r0, #1
10002898:	42a2      	cmp	r2, r4
1000289a:	d300      	bcc.n	1000289e <best_effort_wfe_or_timeout+0xfe>
1000289c:	e794      	b.n	100027c8 <best_effort_wfe_or_timeout+0x28>
1000289e:	1b5b      	subs	r3, r3, r5
100028a0:	1e5a      	subs	r2, r3, #1
100028a2:	4193      	sbcs	r3, r2
100028a4:	b2d8      	uxtb	r0, r3
100028a6:	e78f      	b.n	100027c8 <best_effort_wfe_or_timeout+0x28>
100028a8:	6a9b      	ldr	r3, [r3, #40]	@ 0x28
100028aa:	42a3      	cmp	r3, r4
100028ac:	d2ea      	bcs.n	10002884 <best_effort_wfe_or_timeout+0xe4>
100028ae:	42b2      	cmp	r2, r6
100028b0:	d1e8      	bne.n	10002884 <best_effort_wfe_or_timeout+0xe4>
100028b2:	e7e6      	b.n	10002882 <best_effort_wfe_or_timeout+0xe2>
100028b4:	6903      	ldr	r3, [r0, #16]
100028b6:	f3bf 8f5f 	dmb	sy
100028ba:	2200      	movs	r2, #0
100028bc:	601a      	str	r2, [r3, #0]
100028be:	f388 8810 	msr	PRIMASK, r8
100028c2:	e7e1      	b.n	10002888 <best_effort_wfe_or_timeout+0xe8>
100028c4:	40054000 	.word	0x40054000
100028c8:	2000025c 	.word	0x2000025c
100028cc:	10002175 	.word	0x10002175
100028d0:	0000203c 	.word	0x0000203c

100028d4 <alarm_pool_add_repeating_timer_us>:
100028d4:	b5f0      	push	{r4, r5, r6, r7, lr}
100028d6:	46ce      	mov	lr, r9
100028d8:	4647      	mov	r7, r8
100028da:	0011      	movs	r1, r2
100028dc:	b580      	push	{r7, lr}
100028de:	b083      	sub	sp, #12
100028e0:	0004      	movs	r4, r0
100028e2:	469c      	mov	ip, r3
100028e4:	9d0c      	ldr	r5, [sp, #48]	@ 0x30
100028e6:	4319      	orrs	r1, r3
100028e8:	d100      	bne.n	100028ec <alarm_pool_add_repeating_timer_us+0x18>
100028ea:	e06e      	b.n	100029ca <alarm_pool_add_repeating_timer_us+0xf6>
100028ec:	4661      	mov	r1, ip
100028ee:	17db      	asrs	r3, r3, #31
100028f0:	9301      	str	r3, [sp, #4]
100028f2:	9300      	str	r3, [sp, #0]
100028f4:	4053      	eors	r3, r2
100028f6:	001e      	movs	r6, r3
100028f8:	9b01      	ldr	r3, [sp, #4]
100028fa:	404b      	eors	r3, r1
100028fc:	001f      	movs	r7, r3
100028fe:	9800      	ldr	r0, [sp, #0]
10002900:	9901      	ldr	r1, [sp, #4]
10002902:	1a36      	subs	r6, r6, r0
10002904:	418f      	sbcs	r7, r1
10002906:	4663      	mov	r3, ip
10002908:	990a      	ldr	r1, [sp, #40]	@ 0x28
1000290a:	606b      	str	r3, [r5, #4]
1000290c:	9b0b      	ldr	r3, [sp, #44]	@ 0x2c
1000290e:	60ac      	str	r4, [r5, #8]
10002910:	616b      	str	r3, [r5, #20]
10002912:	6129      	str	r1, [r5, #16]
10002914:	602a      	str	r2, [r5, #0]
10002916:	f000 f8c5 	bl	10002aa4 <time_us_64>
1000291a:	2380      	movs	r3, #128	@ 0x80
1000291c:	1980      	adds	r0, r0, r6
1000291e:	4179      	adcs	r1, r7
10002920:	061b      	lsls	r3, r3, #24
10002922:	4299      	cmp	r1, r3
10002924:	d302      	bcc.n	1000292c <alarm_pool_add_repeating_timer_us+0x58>
10002926:	2001      	movs	r0, #1
10002928:	4931      	ldr	r1, [pc, #196]	@ (100029f0 <alarm_pool_add_repeating_timer_us+0x11c>)
1000292a:	4240      	negs	r0, r0
1000292c:	6922      	ldr	r2, [r4, #16]
1000292e:	f3ef 8910 	mrs	r9, PRIMASK
10002932:	b672      	cpsid	i
10002934:	6813      	ldr	r3, [r2, #0]
10002936:	2b00      	cmp	r3, #0
10002938:	d0fc      	beq.n	10002934 <alarm_pool_add_repeating_timer_us+0x60>
1000293a:	f3bf 8f5f 	dmb	sy
1000293e:	2302      	movs	r3, #2
10002940:	5ee6      	ldrsh	r6, [r4, r3]
10002942:	6963      	ldr	r3, [r4, #20]
10002944:	0072      	lsls	r2, r6, #1
10002946:	1992      	adds	r2, r2, r6
10002948:	00d2      	lsls	r2, r2, #3
1000294a:	189b      	adds	r3, r3, r2
1000294c:	2e00      	cmp	r6, #0
1000294e:	db44      	blt.n	100029da <alarm_pool_add_repeating_timer_us+0x106>
10002950:	881a      	ldrh	r2, [r3, #0]
10002952:	8062      	strh	r2, [r4, #2]
10002954:	6922      	ldr	r2, [r4, #16]
10002956:	4690      	mov	r8, r2
10002958:	f3bf 8f5f 	dmb	sy
1000295c:	2200      	movs	r2, #0
1000295e:	4647      	mov	r7, r8
10002960:	603a      	str	r2, [r7, #0]
10002962:	f389 8810 	msr	PRIMASK, r9
10002966:	4a23      	ldr	r2, [pc, #140]	@ (100029f4 <alarm_pool_add_repeating_timer_us+0x120>)
10002968:	6098      	str	r0, [r3, #8]
1000296a:	60d9      	str	r1, [r3, #12]
1000296c:	611a      	str	r2, [r3, #16]
1000296e:	885a      	ldrh	r2, [r3, #2]
10002970:	615d      	str	r5, [r3, #20]
10002972:	3201      	adds	r2, #1
10002974:	0452      	lsls	r2, r2, #17
10002976:	0c52      	lsrs	r2, r2, #17
10002978:	1c11      	adds	r1, r2, #0
1000297a:	2a00      	cmp	r2, #0
1000297c:	d02b      	beq.n	100029d6 <alarm_pool_add_repeating_timer_us+0x102>
1000297e:	b288      	uxth	r0, r1
10002980:	0432      	lsls	r2, r6, #16
10002982:	4302      	orrs	r2, r0
10002984:	8059      	strh	r1, [r3, #2]
10002986:	6920      	ldr	r0, [r4, #16]
10002988:	f3ef 8710 	mrs	r7, PRIMASK
1000298c:	b672      	cpsid	i
1000298e:	6801      	ldr	r1, [r0, #0]
10002990:	2900      	cmp	r1, #0
10002992:	d0fc      	beq.n	1000298e <alarm_pool_add_repeating_timer_us+0xba>
10002994:	f3bf 8f5f 	dmb	sy
10002998:	88a1      	ldrh	r1, [r4, #4]
1000299a:	8019      	strh	r1, [r3, #0]
1000299c:	80a6      	strh	r6, [r4, #4]
1000299e:	6923      	ldr	r3, [r4, #16]
100029a0:	f3bf 8f5f 	dmb	sy
100029a4:	2100      	movs	r1, #0
100029a6:	6019      	str	r1, [r3, #0]
100029a8:	f387 8810 	msr	PRIMASK, r7
100029ac:	4812      	ldr	r0, [pc, #72]	@ (100029f8 <alarm_pool_add_repeating_timer_us+0x124>)
100029ae:	7823      	ldrb	r3, [r4, #0]
100029b0:	4684      	mov	ip, r0
100029b2:	3101      	adds	r1, #1
100029b4:	4099      	lsls	r1, r3
100029b6:	2001      	movs	r0, #1
100029b8:	68e3      	ldr	r3, [r4, #12]
100029ba:	4463      	add	r3, ip
100029bc:	6019      	str	r1, [r3, #0]
100029be:	60ea      	str	r2, [r5, #12]
100029c0:	b003      	add	sp, #12
100029c2:	bcc0      	pop	{r6, r7}
100029c4:	46b9      	mov	r9, r7
100029c6:	46b0      	mov	r8, r6
100029c8:	bdf0      	pop	{r4, r5, r6, r7, pc}
100029ca:	2300      	movs	r3, #0
100029cc:	2601      	movs	r6, #1
100029ce:	2700      	movs	r7, #0
100029d0:	2201      	movs	r2, #1
100029d2:	469c      	mov	ip, r3
100029d4:	e797      	b.n	10002906 <alarm_pool_add_repeating_timer_us+0x32>
100029d6:	2101      	movs	r1, #1
100029d8:	e7d1      	b.n	1000297e <alarm_pool_add_repeating_timer_us+0xaa>
100029da:	6923      	ldr	r3, [r4, #16]
100029dc:	f3bf 8f5f 	dmb	sy
100029e0:	2200      	movs	r2, #0
100029e2:	601a      	str	r2, [r3, #0]
100029e4:	f389 8810 	msr	PRIMASK, r9
100029e8:	2000      	movs	r0, #0
100029ea:	3a01      	subs	r2, #1
100029ec:	e7e7      	b.n	100029be <alarm_pool_add_repeating_timer_us+0xea>
100029ee:	46c0      	nop			@ (mov r8, r8)
100029f0:	7fffffff 	.word	0x7fffffff
100029f4:	100021a5 	.word	0x100021a5
100029f8:	0000203c 	.word	0x0000203c

100029fc <cancel_repeating_timer>:
100029fc:	68c2      	ldr	r2, [r0, #12]
100029fe:	0003      	movs	r3, r0
10002a00:	b530      	push	{r4, r5, lr}
10002a02:	2000      	movs	r0, #0
10002a04:	2a00      	cmp	r2, #0
10002a06:	d100      	bne.n	10002a0a <cancel_repeating_timer+0xe>
10002a08:	bd30      	pop	{r4, r5, pc}
10002a0a:	6899      	ldr	r1, [r3, #8]
10002a0c:	1414      	asrs	r4, r2, #16
10002a0e:	8948      	ldrh	r0, [r1, #10]
10002a10:	4284      	cmp	r4, r0
10002a12:	da19      	bge.n	10002a48 <cancel_repeating_timer+0x4c>
10002a14:	0060      	lsls	r0, r4, #1
10002a16:	1900      	adds	r0, r0, r4
10002a18:	694c      	ldr	r4, [r1, #20]
10002a1a:	00c0      	lsls	r0, r0, #3
10002a1c:	1820      	adds	r0, r4, r0
10002a1e:	690d      	ldr	r5, [r1, #16]
10002a20:	f3ef 8c10 	mrs	ip, PRIMASK
10002a24:	b672      	cpsid	i
10002a26:	682c      	ldr	r4, [r5, #0]
10002a28:	2c00      	cmp	r4, #0
10002a2a:	d0fc      	beq.n	10002a26 <cancel_repeating_timer+0x2a>
10002a2c:	f3bf 8f5f 	dmb	sy
10002a30:	8844      	ldrh	r4, [r0, #2]
10002a32:	0412      	lsls	r2, r2, #16
10002a34:	0c12      	lsrs	r2, r2, #16
10002a36:	42a2      	cmp	r2, r4
10002a38:	d00a      	beq.n	10002a50 <cancel_repeating_timer+0x54>
10002a3a:	690a      	ldr	r2, [r1, #16]
10002a3c:	f3bf 8f5f 	dmb	sy
10002a40:	2100      	movs	r1, #0
10002a42:	6011      	str	r1, [r2, #0]
10002a44:	f38c 8810 	msr	PRIMASK, ip
10002a48:	2000      	movs	r0, #0
10002a4a:	2200      	movs	r2, #0
10002a4c:	60da      	str	r2, [r3, #12]
10002a4e:	e7db      	b.n	10002a08 <cancel_repeating_timer+0xc>
10002a50:	2480      	movs	r4, #128	@ 0x80
10002a52:	0224      	lsls	r4, r4, #8
10002a54:	4322      	orrs	r2, r4
10002a56:	8042      	strh	r2, [r0, #2]
10002a58:	2201      	movs	r2, #1
10002a5a:	6908      	ldr	r0, [r1, #16]
10002a5c:	718a      	strb	r2, [r1, #6]
10002a5e:	f3bf 8f5f 	dmb	sy
10002a62:	2400      	movs	r4, #0
10002a64:	6004      	str	r4, [r0, #0]
10002a66:	f38c 8810 	msr	PRIMASK, ip
10002a6a:	7808      	ldrb	r0, [r1, #0]
10002a6c:	68c9      	ldr	r1, [r1, #12]
10002a6e:	4082      	lsls	r2, r0
10002a70:	4802      	ldr	r0, [pc, #8]	@ (10002a7c <cancel_repeating_timer+0x80>)
10002a72:	4684      	mov	ip, r0
10002a74:	4461      	add	r1, ip
10002a76:	2001      	movs	r0, #1
10002a78:	600a      	str	r2, [r1, #0]
10002a7a:	e7e6      	b.n	10002a4a <cancel_repeating_timer+0x4e>
10002a7c:	0000203c 	.word	0x0000203c

10002a80 <timer_hardware_alarm_claim>:
10002a80:	b510      	push	{r4, lr}
10002a82:	4a02      	ldr	r2, [pc, #8]	@ (10002a8c <timer_hardware_alarm_claim+0xc>)
10002a84:	4802      	ldr	r0, [pc, #8]	@ (10002a90 <timer_hardware_alarm_claim+0x10>)
10002a86:	f7ff f977 	bl	10001d78 <hw_claim_or_assert>
10002a8a:	bd10      	pop	{r4, pc}
10002a8c:	10003fd8 	.word	0x10003fd8
10002a90:	20000698 	.word	0x20000698

10002a94 <timer_time_us_64>:
10002a94:	0003      	movs	r3, r0
10002a96:	6a41      	ldr	r1, [r0, #36]	@ 0x24
10002a98:	000a      	movs	r2, r1
10002a9a:	6a98      	ldr	r0, [r3, #40]	@ 0x28
10002a9c:	6a59      	ldr	r1, [r3, #36]	@ 0x24
10002a9e:	428a      	cmp	r2, r1
10002aa0:	d1fa      	bne.n	10002a98 <timer_time_us_64+0x4>
10002aa2:	4770      	bx	lr

10002aa4 <time_us_64>:
10002aa4:	4b03      	ldr	r3, [pc, #12]	@ (10002ab4 <time_us_64+0x10>)
10002aa6:	6a59      	ldr	r1, [r3, #36]	@ 0x24
10002aa8:	000a      	movs	r2, r1
10002aaa:	6a98      	ldr	r0, [r3, #40]	@ 0x28
10002aac:	6a59      	ldr	r1, [r3, #36]	@ 0x24
10002aae:	4291      	cmp	r1, r2
10002ab0:	d1fa      	bne.n	10002aa8 <time_us_64+0x4>
10002ab2:	4770      	bx	lr
10002ab4:	40054000 	.word	0x40054000

10002ab8 <busy_wait_us>:
10002ab8:	b570      	push	{r4, r5, r6, lr}
10002aba:	0004      	movs	r4, r0
10002abc:	000d      	movs	r5, r1
10002abe:	4a17      	ldr	r2, [pc, #92]	@ (10002b1c <busy_wait_us+0x64>)
10002ac0:	6a53      	ldr	r3, [r2, #36]	@ 0x24
10002ac2:	0019      	movs	r1, r3
10002ac4:	6a96      	ldr	r6, [r2, #40]	@ 0x28
10002ac6:	6a53      	ldr	r3, [r2, #36]	@ 0x24
10002ac8:	428b      	cmp	r3, r1
10002aca:	d1fa      	bne.n	10002ac2 <busy_wait_us+0xa>
10002acc:	0030      	movs	r0, r6
10002ace:	0019      	movs	r1, r3
10002ad0:	1824      	adds	r4, r4, r0
10002ad2:	414d      	adcs	r5, r1
10002ad4:	42ab      	cmp	r3, r5
10002ad6:	d816      	bhi.n	10002b06 <busy_wait_us+0x4e>
10002ad8:	d013      	beq.n	10002b02 <busy_wait_us+0x4a>
10002ada:	4a10      	ldr	r2, [pc, #64]	@ (10002b1c <busy_wait_us+0x64>)
10002adc:	002b      	movs	r3, r5
10002ade:	6a52      	ldr	r2, [r2, #36]	@ 0x24
10002ae0:	4295      	cmp	r5, r2
10002ae2:	d903      	bls.n	10002aec <busy_wait_us+0x34>
10002ae4:	490d      	ldr	r1, [pc, #52]	@ (10002b1c <busy_wait_us+0x64>)
10002ae6:	6a4a      	ldr	r2, [r1, #36]	@ 0x24
10002ae8:	429a      	cmp	r2, r3
10002aea:	d3fc      	bcc.n	10002ae6 <busy_wait_us+0x2e>
10002aec:	429a      	cmp	r2, r3
10002aee:	d107      	bne.n	10002b00 <busy_wait_us+0x48>
10002af0:	4a0a      	ldr	r2, [pc, #40]	@ (10002b1c <busy_wait_us+0x64>)
10002af2:	e002      	b.n	10002afa <busy_wait_us+0x42>
10002af4:	6a51      	ldr	r1, [r2, #36]	@ 0x24
10002af6:	4299      	cmp	r1, r3
10002af8:	d102      	bne.n	10002b00 <busy_wait_us+0x48>
10002afa:	6a91      	ldr	r1, [r2, #40]	@ 0x28
10002afc:	42a1      	cmp	r1, r4
10002afe:	d3f9      	bcc.n	10002af4 <busy_wait_us+0x3c>
10002b00:	bd70      	pop	{r4, r5, r6, pc}
10002b02:	42a6      	cmp	r6, r4
10002b04:	d9e9      	bls.n	10002ada <busy_wait_us+0x22>
10002b06:	4b05      	ldr	r3, [pc, #20]	@ (10002b1c <busy_wait_us+0x64>)
10002b08:	6a5b      	ldr	r3, [r3, #36]	@ 0x24
10002b0a:	001c      	movs	r4, r3
10002b0c:	1c5a      	adds	r2, r3, #1
10002b0e:	d0ef      	beq.n	10002af0 <busy_wait_us+0x38>
10002b10:	2301      	movs	r3, #1
10002b12:	2401      	movs	r4, #1
10002b14:	4264      	negs	r4, r4
10002b16:	17e5      	asrs	r5, r4, #31
10002b18:	425b      	negs	r3, r3
10002b1a:	e7e3      	b.n	10002ae4 <busy_wait_us+0x2c>
10002b1c:	40054000 	.word	0x40054000

10002b20 <busy_wait_until>:
10002b20:	4a06      	ldr	r2, [pc, #24]	@ (10002b3c <busy_wait_until+0x1c>)
10002b22:	6a53      	ldr	r3, [r2, #36]	@ 0x24
10002b24:	4299      	cmp	r1, r3
10002b26:	d8fc      	bhi.n	10002b22 <busy_wait_until+0x2>
10002b28:	d107      	bne.n	10002b3a <busy_wait_until+0x1a>
10002b2a:	4b04      	ldr	r3, [pc, #16]	@ (10002b3c <busy_wait_until+0x1c>)
10002b2c:	e002      	b.n	10002b34 <busy_wait_until+0x14>
10002b2e:	6a5a      	ldr	r2, [r3, #36]	@ 0x24
10002b30:	4291      	cmp	r1, r2
10002b32:	d102      	bne.n	10002b3a <busy_wait_until+0x1a>
10002b34:	6a9a      	ldr	r2, [r3, #40]	@ 0x28
10002b36:	4282      	cmp	r2, r0
10002b38:	d3f9      	bcc.n	10002b2e <busy_wait_until+0xe>
10002b3a:	4770      	bx	lr
10002b3c:	40054000 	.word	0x40054000

10002b40 <uart_init>:
10002b40:	b5f8      	push	{r3, r4, r5, r6, r7, lr}
10002b42:	0004      	movs	r4, r0
10002b44:	2006      	movs	r0, #6
10002b46:	000d      	movs	r5, r1
10002b48:	f000 fa3c 	bl	10002fc4 <clock_get_hz>
10002b4c:	2800      	cmp	r0, #0
10002b4e:	d044      	beq.n	10002bda <uart_init+0x9a>
10002b50:	4b37      	ldr	r3, [pc, #220]	@ (10002c30 <uart_init+0xf0>)
10002b52:	4938      	ldr	r1, [pc, #224]	@ (10002c34 <uart_init+0xf4>)
10002b54:	18e3      	adds	r3, r4, r3
10002b56:	1e5a      	subs	r2, r3, #1
10002b58:	4193      	sbcs	r3, r2
10002b5a:	2280      	movs	r2, #128	@ 0x80
10002b5c:	0412      	lsls	r2, r2, #16
10002b5e:	4694      	mov	ip, r2
10002b60:	425b      	negs	r3, r3
10002b62:	0d9b      	lsrs	r3, r3, #22
10002b64:	4a34      	ldr	r2, [pc, #208]	@ (10002c38 <uart_init+0xf8>)
10002b66:	059b      	lsls	r3, r3, #22
10002b68:	4463      	add	r3, ip
10002b6a:	6013      	str	r3, [r2, #0]
10002b6c:	4a33      	ldr	r2, [pc, #204]	@ (10002c3c <uart_init+0xfc>)
10002b6e:	6013      	str	r3, [r2, #0]
10002b70:	0018      	movs	r0, r3
10002b72:	680a      	ldr	r2, [r1, #0]
10002b74:	4390      	bics	r0, r2
10002b76:	d1fb      	bne.n	10002b70 <uart_init+0x30>
10002b78:	4b2d      	ldr	r3, [pc, #180]	@ (10002c30 <uart_init+0xf0>)
10002b7a:	4a31      	ldr	r2, [pc, #196]	@ (10002c40 <uart_init+0x100>)
10002b7c:	18e3      	adds	r3, r4, r3
10002b7e:	4259      	negs	r1, r3
10002b80:	414b      	adcs	r3, r1
10002b82:	2180      	movs	r1, #128	@ 0x80
10002b84:	005b      	lsls	r3, r3, #1
10002b86:	0049      	lsls	r1, r1, #1
10002b88:	2006      	movs	r0, #6
10002b8a:	5299      	strh	r1, [r3, r2]
10002b8c:	f000 fa1a 	bl	10002fc4 <clock_get_hz>
10002b90:	0029      	movs	r1, r5
10002b92:	00c0      	lsls	r0, r0, #3
10002b94:	f000 fb9c 	bl	100032d0 <__wrap___aeabi_uidiv>
10002b98:	3001      	adds	r0, #1
10002b9a:	09c3      	lsrs	r3, r0, #7
10002b9c:	d11e      	bne.n	10002bdc <uart_init+0x9c>
10002b9e:	2740      	movs	r7, #64	@ 0x40
10002ba0:	2201      	movs	r2, #1
10002ba2:	6262      	str	r2, [r4, #36]	@ 0x24
10002ba4:	62a3      	str	r3, [r4, #40]	@ 0x28
10002ba6:	6b26      	ldr	r6, [r4, #48]	@ 0x30
10002ba8:	07f3      	lsls	r3, r6, #31
10002baa:	d422      	bmi.n	10002bf2 <uart_init+0xb2>
10002bac:	6ae3      	ldr	r3, [r4, #44]	@ 0x2c
10002bae:	4b25      	ldr	r3, [pc, #148]	@ (10002c44 <uart_init+0x104>)
10002bb0:	2006      	movs	r0, #6
10002bb2:	18e5      	adds	r5, r4, r3
10002bb4:	2300      	movs	r3, #0
10002bb6:	602b      	str	r3, [r5, #0]
10002bb8:	6326      	str	r6, [r4, #48]	@ 0x30
10002bba:	f000 fa03 	bl	10002fc4 <clock_get_hz>
10002bbe:	0039      	movs	r1, r7
10002bc0:	0080      	lsls	r0, r0, #2
10002bc2:	f000 fb85 	bl	100032d0 <__wrap___aeabi_uidiv>
10002bc6:	2370      	movs	r3, #112	@ 0x70
10002bc8:	6ae2      	ldr	r2, [r4, #44]	@ 0x2c
10002bca:	405a      	eors	r2, r3
10002bcc:	330e      	adds	r3, #14
10002bce:	4013      	ands	r3, r2
10002bd0:	602b      	str	r3, [r5, #0]
10002bd2:	4b1d      	ldr	r3, [pc, #116]	@ (10002c48 <uart_init+0x108>)
10002bd4:	6323      	str	r3, [r4, #48]	@ 0x30
10002bd6:	2303      	movs	r3, #3
10002bd8:	64a3      	str	r3, [r4, #72]	@ 0x48
10002bda:	bdf8      	pop	{r3, r4, r5, r6, r7, pc}
10002bdc:	4a1b      	ldr	r2, [pc, #108]	@ (10002c4c <uart_init+0x10c>)
10002bde:	4293      	cmp	r3, r2
10002be0:	d91e      	bls.n	10002c20 <uart_init+0xe0>
10002be2:	2300      	movs	r3, #0
10002be4:	4a1a      	ldr	r2, [pc, #104]	@ (10002c50 <uart_init+0x110>)
10002be6:	4f1b      	ldr	r7, [pc, #108]	@ (10002c54 <uart_init+0x114>)
10002be8:	6262      	str	r2, [r4, #36]	@ 0x24
10002bea:	62a3      	str	r3, [r4, #40]	@ 0x28
10002bec:	6b26      	ldr	r6, [r4, #48]	@ 0x30
10002bee:	07f3      	lsls	r3, r6, #31
10002bf0:	d5dc      	bpl.n	10002bac <uart_init+0x6c>
10002bf2:	4b19      	ldr	r3, [pc, #100]	@ (10002c58 <uart_init+0x118>)
10002bf4:	4a14      	ldr	r2, [pc, #80]	@ (10002c48 <uart_init+0x108>)
10002bf6:	18e3      	adds	r3, r4, r3
10002bf8:	601a      	str	r2, [r3, #0]
10002bfa:	6a65      	ldr	r5, [r4, #36]	@ 0x24
10002bfc:	6aa3      	ldr	r3, [r4, #40]	@ 0x28
10002bfe:	2006      	movs	r0, #6
10002c00:	01ad      	lsls	r5, r5, #6
10002c02:	18ed      	adds	r5, r5, r3
10002c04:	f000 f9de 	bl	10002fc4 <clock_get_hz>
10002c08:	4914      	ldr	r1, [pc, #80]	@ (10002c5c <uart_init+0x11c>)
10002c0a:	f000 fb61 	bl	100032d0 <__wrap___aeabi_uidiv>
10002c0e:	02ad      	lsls	r5, r5, #10
10002c10:	0001      	movs	r1, r0
10002c12:	0028      	movs	r0, r5
10002c14:	f000 fb5c 	bl	100032d0 <__wrap___aeabi_uidiv>
10002c18:	2100      	movs	r1, #0
10002c1a:	f7ff ff4d 	bl	10002ab8 <busy_wait_us>
10002c1e:	e7c5      	b.n	10002bac <uart_init+0x6c>
10002c20:	0640      	lsls	r0, r0, #25
10002c22:	0e80      	lsrs	r0, r0, #26
10002c24:	019f      	lsls	r7, r3, #6
10002c26:	001a      	movs	r2, r3
10002c28:	183f      	adds	r7, r7, r0
10002c2a:	0003      	movs	r3, r0
10002c2c:	e7b9      	b.n	10002ba2 <uart_init+0x62>
10002c2e:	46c0      	nop			@ (mov r8, r8)
10002c30:	bffc8000 	.word	0xbffc8000
10002c34:	4000c008 	.word	0x4000c008
10002c38:	4000e000 	.word	0x4000e000
10002c3c:	4000f000 	.word	0x4000f000
10002c40:	20000c30 	.word	0x20000c30
10002c44:	0000102c 	.word	0x0000102c
10002c48:	00000301 	.word	0x00000301
10002c4c:	0000fffe 	.word	0x0000fffe
10002c50:	0000ffff 	.word	0x0000ffff
10002c54:	003fffc0 	.word	0x003fffc0
10002c58:	00003030 	.word	0x00003030
10002c5c:	00000e4e 	.word	0x00000e4e

10002c60 <uart_set_baudrate>:
10002c60:	b5f8      	push	{r3, r4, r5, r6, r7, lr}
10002c62:	0004      	movs	r4, r0
10002c64:	2006      	movs	r0, #6
10002c66:	000d      	movs	r5, r1
10002c68:	f000 f9ac 	bl	10002fc4 <clock_get_hz>
10002c6c:	0029      	movs	r1, r5
10002c6e:	00c0      	lsls	r0, r0, #3
10002c70:	f000 fb2e 	bl	100032d0 <__wrap___aeabi_uidiv>
10002c74:	3001      	adds	r0, #1
10002c76:	09c3      	lsrs	r3, r0, #7
10002c78:	d021      	beq.n	10002cbe <uart_set_baudrate+0x5e>
10002c7a:	4a1f      	ldr	r2, [pc, #124]	@ (10002cf8 <uart_set_baudrate+0x98>)
10002c7c:	4293      	cmp	r3, r2
10002c7e:	d933      	bls.n	10002ce8 <uart_set_baudrate+0x88>
10002c80:	2300      	movs	r3, #0
10002c82:	4a1e      	ldr	r2, [pc, #120]	@ (10002cfc <uart_set_baudrate+0x9c>)
10002c84:	4f1e      	ldr	r7, [pc, #120]	@ (10002d00 <uart_set_baudrate+0xa0>)
10002c86:	6262      	str	r2, [r4, #36]	@ 0x24
10002c88:	62a3      	str	r3, [r4, #40]	@ 0x28
10002c8a:	6b25      	ldr	r5, [r4, #48]	@ 0x30
10002c8c:	07eb      	lsls	r3, r5, #31
10002c8e:	d51d      	bpl.n	10002ccc <uart_set_baudrate+0x6c>
10002c90:	4b1c      	ldr	r3, [pc, #112]	@ (10002d04 <uart_set_baudrate+0xa4>)
10002c92:	4a1d      	ldr	r2, [pc, #116]	@ (10002d08 <uart_set_baudrate+0xa8>)
10002c94:	18e3      	adds	r3, r4, r3
10002c96:	601a      	str	r2, [r3, #0]
10002c98:	6a66      	ldr	r6, [r4, #36]	@ 0x24
10002c9a:	6aa3      	ldr	r3, [r4, #40]	@ 0x28
10002c9c:	2006      	movs	r0, #6
10002c9e:	01b6      	lsls	r6, r6, #6
10002ca0:	18f6      	adds	r6, r6, r3
10002ca2:	f000 f98f 	bl	10002fc4 <clock_get_hz>
10002ca6:	4919      	ldr	r1, [pc, #100]	@ (10002d0c <uart_set_baudrate+0xac>)
10002ca8:	f000 fb12 	bl	100032d0 <__wrap___aeabi_uidiv>
10002cac:	02b6      	lsls	r6, r6, #10
10002cae:	0001      	movs	r1, r0
10002cb0:	0030      	movs	r0, r6
10002cb2:	f000 fb0d 	bl	100032d0 <__wrap___aeabi_uidiv>
10002cb6:	2100      	movs	r1, #0
10002cb8:	f7ff fefe 	bl	10002ab8 <busy_wait_us>
10002cbc:	e006      	b.n	10002ccc <uart_set_baudrate+0x6c>
10002cbe:	2740      	movs	r7, #64	@ 0x40
10002cc0:	2201      	movs	r2, #1
10002cc2:	6262      	str	r2, [r4, #36]	@ 0x24
10002cc4:	62a3      	str	r3, [r4, #40]	@ 0x28
10002cc6:	6b25      	ldr	r5, [r4, #48]	@ 0x30
10002cc8:	07eb      	lsls	r3, r5, #31
10002cca:	d4e1      	bmi.n	10002c90 <uart_set_baudrate+0x30>
10002ccc:	2200      	movs	r2, #0
10002cce:	6ae3      	ldr	r3, [r4, #44]	@ 0x2c
10002cd0:	4b0f      	ldr	r3, [pc, #60]	@ (10002d10 <uart_set_baudrate+0xb0>)
10002cd2:	2006      	movs	r0, #6
10002cd4:	18e3      	adds	r3, r4, r3
10002cd6:	601a      	str	r2, [r3, #0]
10002cd8:	6325      	str	r5, [r4, #48]	@ 0x30
10002cda:	f000 f973 	bl	10002fc4 <clock_get_hz>
10002cde:	0039      	movs	r1, r7
10002ce0:	0080      	lsls	r0, r0, #2
10002ce2:	f000 faf5 	bl	100032d0 <__wrap___aeabi_uidiv>
10002ce6:	bdf8      	pop	{r3, r4, r5, r6, r7, pc}
10002ce8:	0640      	lsls	r0, r0, #25
10002cea:	0e80      	lsrs	r0, r0, #26
10002cec:	019f      	lsls	r7, r3, #6
10002cee:	001a      	movs	r2, r3
10002cf0:	183f      	adds	r7, r7, r0
10002cf2:	0003      	movs	r3, r0
10002cf4:	e7e5      	b.n	10002cc2 <uart_set_baudrate+0x62>
10002cf6:	46c0      	nop			@ (mov r8, r8)
10002cf8:	0000fffe 	.word	0x0000fffe
10002cfc:	0000ffff 	.word	0x0000ffff
10002d00:	003fffc0 	.word	0x003fffc0
10002d04:	00003030 	.word	0x00003030
10002d08:	00000301 	.word	0x00000301
10002d0c:	00000e4e 	.word	0x00000e4e
10002d10:	0000102c 	.word	0x0000102c

10002d14 <uart_set_format>:
10002d14:	3905      	subs	r1, #5
10002d16:	3a01      	subs	r2, #1
10002d18:	b5f8      	push	{r3, r4, r5, r6, r7, lr}
10002d1a:	00d2      	lsls	r2, r2, #3
10002d1c:	014c      	lsls	r4, r1, #5
10002d1e:	0005      	movs	r5, r0
10002d20:	4314      	orrs	r4, r2
10002d22:	2b00      	cmp	r3, #0
10002d24:	d006      	beq.n	10002d34 <uart_set_format+0x20>
10002d26:	3b01      	subs	r3, #1
10002d28:	425a      	negs	r2, r3
10002d2a:	4153      	adcs	r3, r2
10002d2c:	009b      	lsls	r3, r3, #2
10002d2e:	4323      	orrs	r3, r4
10002d30:	2402      	movs	r4, #2
10002d32:	431c      	orrs	r4, r3
10002d34:	6b2e      	ldr	r6, [r5, #48]	@ 0x30
10002d36:	07f3      	lsls	r3, r6, #31
10002d38:	d408      	bmi.n	10002d4c <uart_set_format+0x38>
10002d3a:	236e      	movs	r3, #110	@ 0x6e
10002d3c:	6aea      	ldr	r2, [r5, #44]	@ 0x2c
10002d3e:	4062      	eors	r2, r4
10002d40:	4013      	ands	r3, r2
10002d42:	4a0e      	ldr	r2, [pc, #56]	@ (10002d7c <uart_set_format+0x68>)
10002d44:	18aa      	adds	r2, r5, r2
10002d46:	6013      	str	r3, [r2, #0]
10002d48:	632e      	str	r6, [r5, #48]	@ 0x30
10002d4a:	bdf8      	pop	{r3, r4, r5, r6, r7, pc}
10002d4c:	4b0c      	ldr	r3, [pc, #48]	@ (10002d80 <uart_set_format+0x6c>)
10002d4e:	4a0d      	ldr	r2, [pc, #52]	@ (10002d84 <uart_set_format+0x70>)
10002d50:	18eb      	adds	r3, r5, r3
10002d52:	601a      	str	r2, [r3, #0]
10002d54:	6a6f      	ldr	r7, [r5, #36]	@ 0x24
10002d56:	6aab      	ldr	r3, [r5, #40]	@ 0x28
10002d58:	2006      	movs	r0, #6
10002d5a:	01bf      	lsls	r7, r7, #6
10002d5c:	18ff      	adds	r7, r7, r3
10002d5e:	f000 f931 	bl	10002fc4 <clock_get_hz>
10002d62:	4909      	ldr	r1, [pc, #36]	@ (10002d88 <uart_set_format+0x74>)
10002d64:	f000 fab4 	bl	100032d0 <__wrap___aeabi_uidiv>
10002d68:	02bf      	lsls	r7, r7, #10
10002d6a:	0001      	movs	r1, r0
10002d6c:	0038      	movs	r0, r7
10002d6e:	f000 faaf 	bl	100032d0 <__wrap___aeabi_uidiv>
10002d72:	2100      	movs	r1, #0
10002d74:	f7ff fea0 	bl	10002ab8 <busy_wait_us>
10002d78:	e7df      	b.n	10002d3a <uart_set_format+0x26>
10002d7a:	46c0      	nop			@ (mov r8, r8)
10002d7c:	0000102c 	.word	0x0000102c
10002d80:	00003030 	.word	0x00003030
10002d84:	00000301 	.word	0x00000301
10002d88:	00000e4e 	.word	0x00000e4e

10002d8c <uart_set_fifo_enabled>:
10002d8c:	b5f8      	push	{r3, r4, r5, r6, r7, lr}
10002d8e:	6b06      	ldr	r6, [r0, #48]	@ 0x30
10002d90:	0004      	movs	r4, r0
10002d92:	010d      	lsls	r5, r1, #4
10002d94:	07f3      	lsls	r3, r6, #31
10002d96:	d408      	bmi.n	10002daa <uart_set_fifo_enabled+0x1e>
10002d98:	6ae3      	ldr	r3, [r4, #44]	@ 0x2c
10002d9a:	405d      	eors	r5, r3
10002d9c:	2310      	movs	r3, #16
10002d9e:	401d      	ands	r5, r3
10002da0:	4b0d      	ldr	r3, [pc, #52]	@ (10002dd8 <uart_set_fifo_enabled+0x4c>)
10002da2:	18e3      	adds	r3, r4, r3
10002da4:	601d      	str	r5, [r3, #0]
10002da6:	6326      	str	r6, [r4, #48]	@ 0x30
10002da8:	bdf8      	pop	{r3, r4, r5, r6, r7, pc}
10002daa:	4b0c      	ldr	r3, [pc, #48]	@ (10002ddc <uart_set_fifo_enabled+0x50>)
10002dac:	4a0c      	ldr	r2, [pc, #48]	@ (10002de0 <uart_set_fifo_enabled+0x54>)
10002dae:	18c3      	adds	r3, r0, r3
10002db0:	601a      	str	r2, [r3, #0]
10002db2:	6a47      	ldr	r7, [r0, #36]	@ 0x24
10002db4:	6a83      	ldr	r3, [r0, #40]	@ 0x28
10002db6:	01bf      	lsls	r7, r7, #6
10002db8:	2006      	movs	r0, #6
10002dba:	18ff      	adds	r7, r7, r3
10002dbc:	f000 f902 	bl	10002fc4 <clock_get_hz>
10002dc0:	4908      	ldr	r1, [pc, #32]	@ (10002de4 <uart_set_fifo_enabled+0x58>)
10002dc2:	f000 fa85 	bl	100032d0 <__wrap___aeabi_uidiv>
10002dc6:	02bf      	lsls	r7, r7, #10
10002dc8:	0001      	movs	r1, r0
10002dca:	0038      	movs	r0, r7
10002dcc:	f000 fa80 	bl	100032d0 <__wrap___aeabi_uidiv>
10002dd0:	2100      	movs	r1, #0
10002dd2:	f7ff fe71 	bl	10002ab8 <busy_wait_us>
10002dd6:	e7df      	b.n	10002d98 <uart_set_fifo_enabled+0xc>
10002dd8:	0000102c 	.word	0x0000102c
10002ddc:	00003030 	.word	0x00003030
10002de0:	00000301 	.word	0x00000301
10002de4:	00000e4e 	.word	0x00000e4e

10002de8 <clock_configure_int_divider>:
10002de8:	b5f8      	push	{r3, r4, r5, r6, r7, lr}
10002dea:	46de      	mov	lr, fp
10002dec:	464e      	mov	r6, r9
10002dee:	4657      	mov	r7, sl
10002df0:	4645      	mov	r5, r8
10002df2:	b5e0      	push	{r5, r6, r7, lr}
10002df4:	468b      	mov	fp, r1
10002df6:	0005      	movs	r5, r0
10002df8:	990a      	ldr	r1, [sp, #40]	@ 0x28
10002dfa:	0018      	movs	r0, r3
10002dfc:	0016      	movs	r6, r2
10002dfe:	f000 fa67 	bl	100032d0 <__wrap___aeabi_uidiv>
10002e02:	9b0a      	ldr	r3, [sp, #40]	@ 0x28
10002e04:	006c      	lsls	r4, r5, #1
10002e06:	021f      	lsls	r7, r3, #8
10002e08:	4b32      	ldr	r3, [pc, #200]	@ (10002ed4 <clock_configure_int_divider+0xec>)
10002e0a:	1964      	adds	r4, r4, r5
10002e0c:	469c      	mov	ip, r3
10002e0e:	00a4      	lsls	r4, r4, #2
10002e10:	4464      	add	r4, ip
10002e12:	6863      	ldr	r3, [r4, #4]
10002e14:	4681      	mov	r9, r0
10002e16:	429f      	cmp	r7, r3
10002e18:	d900      	bls.n	10002e1c <clock_configure_int_divider+0x34>
10002e1a:	6067      	str	r7, [r4, #4]
10002e1c:	1f2b      	subs	r3, r5, #4
10002e1e:	b2db      	uxtb	r3, r3
10002e20:	4698      	mov	r8, r3
10002e22:	2b01      	cmp	r3, #1
10002e24:	d930      	bls.n	10002e88 <clock_configure_int_divider+0xa0>
10002e26:	23c0      	movs	r3, #192	@ 0xc0
10002e28:	2280      	movs	r2, #128	@ 0x80
10002e2a:	019b      	lsls	r3, r3, #6
10002e2c:	18e3      	adds	r3, r4, r3
10002e2e:	0112      	lsls	r2, r2, #4
10002e30:	601a      	str	r2, [r3, #0]
10002e32:	4b29      	ldr	r3, [pc, #164]	@ (10002ed8 <clock_configure_int_divider+0xf0>)
10002e34:	00ad      	lsls	r5, r5, #2
10002e36:	5959      	ldr	r1, [r3, r5]
10002e38:	469a      	mov	sl, r3
10002e3a:	2900      	cmp	r1, #0
10002e3c:	d11b      	bne.n	10002e76 <clock_configure_int_divider+0x8e>
10002e3e:	0173      	lsls	r3, r6, #5
10002e40:	26e0      	movs	r6, #224	@ 0xe0
10002e42:	6822      	ldr	r2, [r4, #0]
10002e44:	4053      	eors	r3, r2
10002e46:	401e      	ands	r6, r3
10002e48:	2380      	movs	r3, #128	@ 0x80
10002e4a:	4642      	mov	r2, r8
10002e4c:	015b      	lsls	r3, r3, #5
10002e4e:	18e3      	adds	r3, r4, r3
10002e50:	601e      	str	r6, [r3, #0]
10002e52:	2a01      	cmp	r2, #1
10002e54:	d930      	bls.n	10002eb8 <clock_configure_int_divider+0xd0>
10002e56:	2380      	movs	r3, #128	@ 0x80
10002e58:	2280      	movs	r2, #128	@ 0x80
10002e5a:	019b      	lsls	r3, r3, #6
10002e5c:	18e3      	adds	r3, r4, r3
10002e5e:	0112      	lsls	r2, r2, #4
10002e60:	601a      	str	r2, [r3, #0]
10002e62:	4653      	mov	r3, sl
10002e64:	464a      	mov	r2, r9
10002e66:	6067      	str	r7, [r4, #4]
10002e68:	515a      	str	r2, [r3, r5]
10002e6a:	bcf0      	pop	{r4, r5, r6, r7}
10002e6c:	46bb      	mov	fp, r7
10002e6e:	46b2      	mov	sl, r6
10002e70:	46a9      	mov	r9, r5
10002e72:	46a0      	mov	r8, r4
10002e74:	bdf8      	pop	{r3, r4, r5, r6, r7, pc}
10002e76:	6958      	ldr	r0, [r3, #20]
10002e78:	f000 fa2a 	bl	100032d0 <__wrap___aeabi_uidiv>
10002e7c:	3001      	adds	r0, #1
10002e7e:	0043      	lsls	r3, r0, #1
10002e80:	181b      	adds	r3, r3, r0
10002e82:	3b03      	subs	r3, #3
10002e84:	d2fd      	bcs.n	10002e82 <clock_configure_int_divider+0x9a>
10002e86:	e7da      	b.n	10002e3e <clock_configure_int_divider+0x56>
10002e88:	465b      	mov	r3, fp
10002e8a:	2b01      	cmp	r3, #1
10002e8c:	d1cb      	bne.n	10002e26 <clock_configure_int_divider+0x3e>
10002e8e:	23c0      	movs	r3, #192	@ 0xc0
10002e90:	2203      	movs	r2, #3
10002e92:	019b      	lsls	r3, r3, #6
10002e94:	18e3      	adds	r3, r4, r3
10002e96:	601a      	str	r2, [r3, #0]
10002e98:	3a02      	subs	r2, #2
10002e9a:	68a3      	ldr	r3, [r4, #8]
10002e9c:	421a      	tst	r2, r3
10002e9e:	d0fc      	beq.n	10002e9a <clock_configure_int_divider+0xb2>
10002ea0:	0173      	lsls	r3, r6, #5
10002ea2:	26e0      	movs	r6, #224	@ 0xe0
10002ea4:	6822      	ldr	r2, [r4, #0]
10002ea6:	00ad      	lsls	r5, r5, #2
10002ea8:	4053      	eors	r3, r2
10002eaa:	401e      	ands	r6, r3
10002eac:	2380      	movs	r3, #128	@ 0x80
10002eae:	4a0a      	ldr	r2, [pc, #40]	@ (10002ed8 <clock_configure_int_divider+0xf0>)
10002eb0:	015b      	lsls	r3, r3, #5
10002eb2:	4692      	mov	sl, r2
10002eb4:	18e3      	adds	r3, r4, r3
10002eb6:	601e      	str	r6, [r3, #0]
10002eb8:	465a      	mov	r2, fp
10002eba:	6821      	ldr	r1, [r4, #0]
10002ebc:	4051      	eors	r1, r2
10002ebe:	2203      	movs	r2, #3
10002ec0:	400a      	ands	r2, r1
10002ec2:	601a      	str	r2, [r3, #0]
10002ec4:	2201      	movs	r2, #1
10002ec6:	465b      	mov	r3, fp
10002ec8:	409a      	lsls	r2, r3
10002eca:	68a3      	ldr	r3, [r4, #8]
10002ecc:	421a      	tst	r2, r3
10002ece:	d0fc      	beq.n	10002eca <clock_configure_int_divider+0xe2>
10002ed0:	e7c1      	b.n	10002e56 <clock_configure_int_divider+0x6e>
10002ed2:	46c0      	nop			@ (mov r8, r8)
10002ed4:	40008000 	.word	0x40008000
10002ed8:	2000069c 	.word	0x2000069c

10002edc <clock_configure_undivided>:
10002edc:	b5f0      	push	{r4, r5, r6, r7, lr}
10002ede:	4646      	mov	r6, r8
10002ee0:	464f      	mov	r7, r9
10002ee2:	46d6      	mov	lr, sl
10002ee4:	b5c0      	push	{r6, r7, lr}
10002ee6:	001f      	movs	r7, r3
10002ee8:	4b34      	ldr	r3, [pc, #208]	@ (10002fbc <clock_configure_undivided+0xe0>)
10002eea:	0044      	lsls	r4, r0, #1
10002eec:	469c      	mov	ip, r3
10002eee:	1824      	adds	r4, r4, r0
10002ef0:	00a4      	lsls	r4, r4, #2
10002ef2:	4464      	add	r4, ip
10002ef4:	6863      	ldr	r3, [r4, #4]
10002ef6:	4688      	mov	r8, r1
10002ef8:	0016      	movs	r6, r2
10002efa:	2bff      	cmp	r3, #255	@ 0xff
10002efc:	d802      	bhi.n	10002f04 <clock_configure_undivided+0x28>
10002efe:	2380      	movs	r3, #128	@ 0x80
10002f00:	005b      	lsls	r3, r3, #1
10002f02:	6063      	str	r3, [r4, #4]
10002f04:	1f03      	subs	r3, r0, #4
10002f06:	b2db      	uxtb	r3, r3
10002f08:	469a      	mov	sl, r3
10002f0a:	2b01      	cmp	r3, #1
10002f0c:	d930      	bls.n	10002f70 <clock_configure_undivided+0x94>
10002f0e:	23c0      	movs	r3, #192	@ 0xc0
10002f10:	2280      	movs	r2, #128	@ 0x80
10002f12:	019b      	lsls	r3, r3, #6
10002f14:	18e3      	adds	r3, r4, r3
10002f16:	0112      	lsls	r2, r2, #4
10002f18:	601a      	str	r2, [r3, #0]
10002f1a:	4b29      	ldr	r3, [pc, #164]	@ (10002fc0 <clock_configure_undivided+0xe4>)
10002f1c:	0085      	lsls	r5, r0, #2
10002f1e:	5959      	ldr	r1, [r3, r5]
10002f20:	4699      	mov	r9, r3
10002f22:	2900      	cmp	r1, #0
10002f24:	d11b      	bne.n	10002f5e <clock_configure_undivided+0x82>
10002f26:	0173      	lsls	r3, r6, #5
10002f28:	26e0      	movs	r6, #224	@ 0xe0
10002f2a:	6822      	ldr	r2, [r4, #0]
10002f2c:	4053      	eors	r3, r2
10002f2e:	401e      	ands	r6, r3
10002f30:	2380      	movs	r3, #128	@ 0x80
10002f32:	4652      	mov	r2, sl
10002f34:	015b      	lsls	r3, r3, #5
10002f36:	18e3      	adds	r3, r4, r3
10002f38:	601e      	str	r6, [r3, #0]
10002f3a:	2a01      	cmp	r2, #1
10002f3c:	d930      	bls.n	10002fa0 <clock_configure_undivided+0xc4>
10002f3e:	2380      	movs	r3, #128	@ 0x80
10002f40:	2280      	movs	r2, #128	@ 0x80
10002f42:	019b      	lsls	r3, r3, #6
10002f44:	18e3      	adds	r3, r4, r3
10002f46:	0112      	lsls	r2, r2, #4
10002f48:	601a      	str	r2, [r3, #0]
10002f4a:	2380      	movs	r3, #128	@ 0x80
10002f4c:	005b      	lsls	r3, r3, #1
10002f4e:	6063      	str	r3, [r4, #4]
10002f50:	464b      	mov	r3, r9
10002f52:	515f      	str	r7, [r3, r5]
10002f54:	bce0      	pop	{r5, r6, r7}
10002f56:	46ba      	mov	sl, r7
10002f58:	46b1      	mov	r9, r6
10002f5a:	46a8      	mov	r8, r5
10002f5c:	bdf0      	pop	{r4, r5, r6, r7, pc}
10002f5e:	6958      	ldr	r0, [r3, #20]
10002f60:	f000 f9b6 	bl	100032d0 <__wrap___aeabi_uidiv>
10002f64:	3001      	adds	r0, #1
10002f66:	0043      	lsls	r3, r0, #1
10002f68:	181b      	adds	r3, r3, r0
10002f6a:	3b03      	subs	r3, #3
10002f6c:	d2fd      	bcs.n	10002f6a <clock_configure_undivided+0x8e>
10002f6e:	e7da      	b.n	10002f26 <clock_configure_undivided+0x4a>
10002f70:	4643      	mov	r3, r8
10002f72:	2b01      	cmp	r3, #1
10002f74:	d1cb      	bne.n	10002f0e <clock_configure_undivided+0x32>
10002f76:	23c0      	movs	r3, #192	@ 0xc0
10002f78:	2203      	movs	r2, #3
10002f7a:	019b      	lsls	r3, r3, #6
10002f7c:	18e3      	adds	r3, r4, r3
10002f7e:	601a      	str	r2, [r3, #0]
10002f80:	3a02      	subs	r2, #2
10002f82:	68a3      	ldr	r3, [r4, #8]
10002f84:	421a      	tst	r2, r3
10002f86:	d0fc      	beq.n	10002f82 <clock_configure_undivided+0xa6>
10002f88:	0173      	lsls	r3, r6, #5
10002f8a:	26e0      	movs	r6, #224	@ 0xe0
10002f8c:	6822      	ldr	r2, [r4, #0]
10002f8e:	0085      	lsls	r5, r0, #2
10002f90:	4053      	eors	r3, r2
10002f92:	401e      	ands	r6, r3
10002f94:	2380      	movs	r3, #128	@ 0x80
10002f96:	4a0a      	ldr	r2, [pc, #40]	@ (10002fc0 <clock_configure_undivided+0xe4>)
10002f98:	015b      	lsls	r3, r3, #5
10002f9a:	4691      	mov	r9, r2
10002f9c:	18e3      	adds	r3, r4, r3
10002f9e:	601e      	str	r6, [r3, #0]
10002fa0:	4642      	mov	r2, r8
10002fa2:	6821      	ldr	r1, [r4, #0]
10002fa4:	4051      	eors	r1, r2
10002fa6:	2203      	movs	r2, #3
10002fa8:	400a      	ands	r2, r1
10002faa:	601a      	str	r2, [r3, #0]
10002fac:	2301      	movs	r3, #1
10002fae:	4642      	mov	r2, r8
10002fb0:	4093      	lsls	r3, r2
10002fb2:	68a2      	ldr	r2, [r4, #8]
10002fb4:	4213      	tst	r3, r2
10002fb6:	d0fc      	beq.n	10002fb2 <clock_configure_undivided+0xd6>
10002fb8:	e7c1      	b.n	10002f3e <clock_configure_undivided+0x62>
10002fba:	46c0      	nop			@ (mov r8, r8)
10002fbc:	40008000 	.word	0x40008000
10002fc0:	2000069c 	.word	0x2000069c

10002fc4 <clock_get_hz>:
10002fc4:	4b01      	ldr	r3, [pc, #4]	@ (10002fcc <clock_get_hz+0x8>)
10002fc6:	0080      	lsls	r0, r0, #2
10002fc8:	58c0      	ldr	r0, [r0, r3]
10002fca:	4770      	bx	lr
10002fcc:	2000069c 	.word	0x2000069c

10002fd0 <pll_init>:
10002fd0:	b5f8      	push	{r3, r4, r5, r6, r7, lr}
10002fd2:	0004      	movs	r4, r0
10002fd4:	4821      	ldr	r0, [pc, #132]	@ (1000305c <pll_init+0x8c>)
10002fd6:	001e      	movs	r6, r3
10002fd8:	0017      	movs	r7, r2
10002fda:	000d      	movs	r5, r1
10002fdc:	f000 f978 	bl	100032d0 <__wrap___aeabi_uidiv>
10002fe0:	0001      	movs	r1, r0
10002fe2:	0038      	movs	r0, r7
10002fe4:	f000 f974 	bl	100032d0 <__wrap___aeabi_uidiv>
10002fe8:	9b06      	ldr	r3, [sp, #24]
10002fea:	0436      	lsls	r6, r6, #16
10002fec:	031b      	lsls	r3, r3, #12
10002fee:	431e      	orrs	r6, r3
10002ff0:	6823      	ldr	r3, [r4, #0]
10002ff2:	2b00      	cmp	r3, #0
10002ff4:	db20      	blt.n	10003038 <pll_init+0x68>
10002ff6:	4b1a      	ldr	r3, [pc, #104]	@ (10003060 <pll_init+0x90>)
10002ff8:	491a      	ldr	r1, [pc, #104]	@ (10003064 <pll_init+0x94>)
10002ffa:	18e3      	adds	r3, r4, r3
10002ffc:	1e5a      	subs	r2, r3, #1
10002ffe:	4193      	sbcs	r3, r2
10003000:	2280      	movs	r2, #128	@ 0x80
10003002:	0192      	lsls	r2, r2, #6
10003004:	4694      	mov	ip, r2
10003006:	425b      	negs	r3, r3
10003008:	0b1b      	lsrs	r3, r3, #12
1000300a:	4a17      	ldr	r2, [pc, #92]	@ (10003068 <pll_init+0x98>)
1000300c:	031b      	lsls	r3, r3, #12
1000300e:	4463      	add	r3, ip
10003010:	6013      	str	r3, [r2, #0]
10003012:	4a16      	ldr	r2, [pc, #88]	@ (1000306c <pll_init+0x9c>)
10003014:	6013      	str	r3, [r2, #0]
10003016:	001f      	movs	r7, r3
10003018:	680a      	ldr	r2, [r1, #0]
1000301a:	4397      	bics	r7, r2
1000301c:	d1fb      	bne.n	10003016 <pll_init+0x46>
1000301e:	4b14      	ldr	r3, [pc, #80]	@ (10003070 <pll_init+0xa0>)
10003020:	6025      	str	r5, [r4, #0]
10003022:	18e2      	adds	r2, r4, r3
10003024:	2321      	movs	r3, #33	@ 0x21
10003026:	60a0      	str	r0, [r4, #8]
10003028:	6013      	str	r3, [r2, #0]
1000302a:	6823      	ldr	r3, [r4, #0]
1000302c:	2b00      	cmp	r3, #0
1000302e:	dafc      	bge.n	1000302a <pll_init+0x5a>
10003030:	2308      	movs	r3, #8
10003032:	60e6      	str	r6, [r4, #12]
10003034:	6013      	str	r3, [r2, #0]
10003036:	bdf8      	pop	{r3, r4, r5, r6, r7, pc}
10003038:	233f      	movs	r3, #63	@ 0x3f
1000303a:	6822      	ldr	r2, [r4, #0]
1000303c:	4013      	ands	r3, r2
1000303e:	42ab      	cmp	r3, r5
10003040:	d1d9      	bne.n	10002ff6 <pll_init+0x26>
10003042:	68a3      	ldr	r3, [r4, #8]
10003044:	051b      	lsls	r3, r3, #20
10003046:	0d1b      	lsrs	r3, r3, #20
10003048:	4283      	cmp	r3, r0
1000304a:	d1d4      	bne.n	10002ff6 <pll_init+0x26>
1000304c:	22ee      	movs	r2, #238	@ 0xee
1000304e:	68e3      	ldr	r3, [r4, #12]
10003050:	02d2      	lsls	r2, r2, #11
10003052:	4013      	ands	r3, r2
10003054:	42b3      	cmp	r3, r6
10003056:	d1ce      	bne.n	10002ff6 <pll_init+0x26>
10003058:	e7ed      	b.n	10003036 <pll_init+0x66>
1000305a:	46c0      	nop			@ (mov r8, r8)
1000305c:	00b71b00 	.word	0x00b71b00
10003060:	bffd4000 	.word	0xbffd4000
10003064:	4000c008 	.word	0x4000c008
10003068:	4000e000 	.word	0x4000e000
1000306c:	4000f000 	.word	0x4000f000
10003070:	00003004 	.word	0x00003004

10003074 <tick_start>:
10003074:	2380      	movs	r3, #128	@ 0x80
10003076:	4a02      	ldr	r2, [pc, #8]	@ (10003080 <tick_start+0xc>)
10003078:	009b      	lsls	r3, r3, #2
1000307a:	430b      	orrs	r3, r1
1000307c:	62d3      	str	r3, [r2, #44]	@ 0x2c
1000307e:	4770      	bx	lr
10003080:	40058000 	.word	0x40058000

10003084 <xosc_init>:
10003084:	23aa      	movs	r3, #170	@ 0xaa
10003086:	4a06      	ldr	r2, [pc, #24]	@ (100030a0 <xosc_init+0x1c>)
10003088:	011b      	lsls	r3, r3, #4
1000308a:	6013      	str	r3, [r2, #0]
1000308c:	232f      	movs	r3, #47	@ 0x2f
1000308e:	4905      	ldr	r1, [pc, #20]	@ (100030a4 <xosc_init+0x20>)
10003090:	60d3      	str	r3, [r2, #12]
10003092:	4b05      	ldr	r3, [pc, #20]	@ (100030a8 <xosc_init+0x24>)
10003094:	6019      	str	r1, [r3, #0]
10003096:	6853      	ldr	r3, [r2, #4]
10003098:	2b00      	cmp	r3, #0
1000309a:	dafc      	bge.n	10003096 <xosc_init+0x12>
1000309c:	4770      	bx	lr
1000309e:	46c0      	nop			@ (mov r8, r8)
100030a0:	40024000 	.word	0x40024000
100030a4:	00fab000 	.word	0x00fab000
100030a8:	40026000 	.word	0x40026000

100030ac <first_per_core_initializer>:
100030ac:	4770      	bx	lr
100030ae:	46c0      	nop			@ (mov r8, r8)

100030b0 <hard_assertion_failure>:
100030b0:	b510      	push	{r4, lr}
100030b2:	4801      	ldr	r0, [pc, #4]	@ (100030b8 <hard_assertion_failure+0x8>)
100030b4:	f7fe fe48 	bl	10001d48 <panic>
100030b8:	10003ffc 	.word	0x10003ffc

100030bc <runtime_run_initializers>:
100030bc:	b570      	push	{r4, r5, r6, lr}
100030be:	4d07      	ldr	r5, [pc, #28]	@ (100030dc <runtime_run_initializers+0x20>)
100030c0:	4e07      	ldr	r6, [pc, #28]	@ (100030e0 <runtime_run_initializers+0x24>)
100030c2:	42b5      	cmp	r5, r6
100030c4:	d209      	bcs.n	100030da <runtime_run_initializers+0x1e>
100030c6:	2400      	movs	r4, #0
100030c8:	3e01      	subs	r6, #1
100030ca:	1b76      	subs	r6, r6, r5
100030cc:	08b6      	lsrs	r6, r6, #2
100030ce:	cd08      	ldmia	r5!, {r3}
100030d0:	4798      	blx	r3
100030d2:	0023      	movs	r3, r4
100030d4:	3401      	adds	r4, #1
100030d6:	42b3      	cmp	r3, r6
100030d8:	d1f9      	bne.n	100030ce <runtime_run_initializers+0x12>
100030da:	bd70      	pop	{r4, r5, r6, pc}
100030dc:	10003b10 	.word	0x10003b10
100030e0:	10003b4c 	.word	0x10003b4c

100030e4 <runtime_init_early_resets>:
100030e4:	4b05      	ldr	r3, [pc, #20]	@ (100030fc <runtime_init_early_resets+0x18>)
100030e6:	4a06      	ldr	r2, [pc, #24]	@ (10003100 <runtime_init_early_resets+0x1c>)
100030e8:	4906      	ldr	r1, [pc, #24]	@ (10003104 <runtime_init_early_resets+0x20>)
100030ea:	601a      	str	r2, [r3, #0]
100030ec:	4a06      	ldr	r2, [pc, #24]	@ (10003108 <runtime_init_early_resets+0x24>)
100030ee:	4b07      	ldr	r3, [pc, #28]	@ (1000310c <runtime_init_early_resets+0x28>)
100030f0:	601a      	str	r2, [r3, #0]
100030f2:	0010      	movs	r0, r2
100030f4:	680b      	ldr	r3, [r1, #0]
100030f6:	4398      	bics	r0, r3
100030f8:	d1fb      	bne.n	100030f2 <runtime_init_early_resets+0xe>
100030fa:	4770      	bx	lr
100030fc:	4000e000 	.word	0x4000e000
10003100:	fefbcdbf 	.word	0xfefbcdbf
10003104:	4000c008 	.word	0x4000c008
10003108:	003c7ffe 	.word	0x003c7ffe
1000310c:	4000f000 	.word	0x4000f000

10003110 <runtime_init_usb_power_down>:
10003110:	4b04      	ldr	r3, [pc, #16]	@ (10003124 <runtime_init_usb_power_down+0x14>)
10003112:	6cdb      	ldr	r3, [r3, #76]	@ 0x4c
10003114:	2b00      	cmp	r3, #0
10003116:	d103      	bne.n	10003120 <runtime_init_usb_power_down+0x10>
10003118:	2280      	movs	r2, #128	@ 0x80
1000311a:	4b03      	ldr	r3, [pc, #12]	@ (10003128 <runtime_init_usb_power_down+0x18>)
1000311c:	02d2      	lsls	r2, r2, #11
1000311e:	601a      	str	r2, [r3, #0]
10003120:	4770      	bx	lr
10003122:	46c0      	nop			@ (mov r8, r8)
10003124:	50110000 	.word	0x50110000
10003128:	5011204c 	.word	0x5011204c

1000312c <runtime_init_post_clock_resets>:
1000312c:	4a04      	ldr	r2, [pc, #16]	@ (10003140 <runtime_init_post_clock_resets+0x14>)
1000312e:	4b05      	ldr	r3, [pc, #20]	@ (10003144 <runtime_init_post_clock_resets+0x18>)
10003130:	601a      	str	r2, [r3, #0]
10003132:	4a05      	ldr	r2, [pc, #20]	@ (10003148 <runtime_init_post_clock_resets+0x1c>)
10003134:	6813      	ldr	r3, [r2, #0]
10003136:	01db      	lsls	r3, r3, #7
10003138:	3380      	adds	r3, #128	@ 0x80
1000313a:	d1fb      	bne.n	10003134 <runtime_init_post_clock_resets+0x8>
1000313c:	4770      	bx	lr
1000313e:	46c0      	nop			@ (mov r8, r8)
10003140:	01ffffff 	.word	0x01ffffff
10003144:	4000f000 	.word	0x4000f000
10003148:	4000c008 	.word	0x4000c008

1000314c <runtime_init_rp2040_gpio_ie_disable>:
1000314c:	2240      	movs	r2, #64	@ 0x40
1000314e:	4b03      	ldr	r3, [pc, #12]	@ (1000315c <runtime_init_rp2040_gpio_ie_disable+0x10>)
10003150:	679a      	str	r2, [r3, #120]	@ 0x78
10003152:	675a      	str	r2, [r3, #116]	@ 0x74
10003154:	671a      	str	r2, [r3, #112]	@ 0x70
10003156:	66da      	str	r2, [r3, #108]	@ 0x6c
10003158:	4770      	bx	lr
1000315a:	46c0      	nop			@ (mov r8, r8)
1000315c:	4001f000 	.word	0x4001f000

10003160 <runtime_init_spin_locks_reset>:
10003160:	b510      	push	{r4, lr}
10003162:	f7fe fe37 	bl	10001dd4 <spin_locks_reset>
10003166:	bd10      	pop	{r4, pc}

10003168 <runtime_init_install_ram_vector_table>:
10003168:	b570      	push	{r4, r5, r6, lr}
1000316a:	4d04      	ldr	r5, [pc, #16]	@ (1000317c <runtime_init_install_ram_vector_table+0x14>)
1000316c:	4c04      	ldr	r4, [pc, #16]	@ (10003180 <runtime_init_install_ram_vector_table+0x18>)
1000316e:	68a9      	ldr	r1, [r5, #8]
10003170:	22c0      	movs	r2, #192	@ 0xc0
10003172:	0020      	movs	r0, r4
10003174:	f000 f9aa 	bl	100034cc <__wrap___aeabi_memcpy>
10003178:	60ac      	str	r4, [r5, #8]
1000317a:	bd70      	pop	{r4, r5, r6, pc}
1000317c:	e000ed00 	.word	0xe000ed00
10003180:	20000000 	.word	0x20000000

10003184 <runtime_init_clocks>:
10003184:	2300      	movs	r3, #0
10003186:	b510      	push	{r4, lr}
10003188:	4c29      	ldr	r4, [pc, #164]	@ (10003230 <runtime_init_clocks+0xac>)
1000318a:	b082      	sub	sp, #8
1000318c:	67a3      	str	r3, [r4, #120]	@ 0x78
1000318e:	f7ff ff79 	bl	10003084 <xosc_init>
10003192:	2201      	movs	r2, #1
10003194:	4b27      	ldr	r3, [pc, #156]	@ (10003234 <runtime_init_clocks+0xb0>)
10003196:	601a      	str	r2, [r3, #0]
10003198:	6c63      	ldr	r3, [r4, #68]	@ 0x44
1000319a:	2b01      	cmp	r3, #1
1000319c:	d1fc      	bne.n	10003198 <runtime_init_clocks+0x14>
1000319e:	2203      	movs	r2, #3
100031a0:	4b25      	ldr	r3, [pc, #148]	@ (10003238 <runtime_init_clocks+0xb4>)
100031a2:	601a      	str	r2, [r3, #0]
100031a4:	4a22      	ldr	r2, [pc, #136]	@ (10003230 <runtime_init_clocks+0xac>)
100031a6:	6b93      	ldr	r3, [r2, #56]	@ 0x38
100031a8:	2b01      	cmp	r3, #1
100031aa:	d1fc      	bne.n	100031a6 <runtime_init_clocks+0x22>
100031ac:	3301      	adds	r3, #1
100031ae:	9300      	str	r3, [sp, #0]
100031b0:	2101      	movs	r1, #1
100031b2:	4a22      	ldr	r2, [pc, #136]	@ (1000323c <runtime_init_clocks+0xb8>)
100031b4:	4822      	ldr	r0, [pc, #136]	@ (10003240 <runtime_init_clocks+0xbc>)
100031b6:	3304      	adds	r3, #4
100031b8:	f7ff ff0a 	bl	10002fd0 <pll_init>
100031bc:	2305      	movs	r3, #5
100031be:	2101      	movs	r1, #1
100031c0:	9300      	str	r3, [sp, #0]
100031c2:	4a20      	ldr	r2, [pc, #128]	@ (10003244 <runtime_init_clocks+0xc0>)
100031c4:	4820      	ldr	r0, [pc, #128]	@ (10003248 <runtime_init_clocks+0xc4>)
100031c6:	f7ff ff03 	bl	10002fd0 <pll_init>
100031ca:	2200      	movs	r2, #0
100031cc:	2102      	movs	r1, #2
100031ce:	2004      	movs	r0, #4
100031d0:	4b1e      	ldr	r3, [pc, #120]	@ (1000324c <runtime_init_clocks+0xc8>)
100031d2:	f7ff fe83 	bl	10002edc <clock_configure_undivided>
100031d6:	2200      	movs	r2, #0
100031d8:	2101      	movs	r1, #1
100031da:	2005      	movs	r0, #5
100031dc:	4b1c      	ldr	r3, [pc, #112]	@ (10003250 <runtime_init_clocks+0xcc>)
100031de:	f7ff fe7d 	bl	10002edc <clock_configure_undivided>
100031e2:	2200      	movs	r2, #0
100031e4:	2100      	movs	r1, #0
100031e6:	2007      	movs	r0, #7
100031e8:	4b1a      	ldr	r3, [pc, #104]	@ (10003254 <runtime_init_clocks+0xd0>)
100031ea:	f7ff fe77 	bl	10002edc <clock_configure_undivided>
100031ee:	2200      	movs	r2, #0
100031f0:	2100      	movs	r1, #0
100031f2:	2008      	movs	r0, #8
100031f4:	4b17      	ldr	r3, [pc, #92]	@ (10003254 <runtime_init_clocks+0xd0>)
100031f6:	f7ff fe71 	bl	10002edc <clock_configure_undivided>
100031fa:	2380      	movs	r3, #128	@ 0x80
100031fc:	00db      	lsls	r3, r3, #3
100031fe:	9300      	str	r3, [sp, #0]
10003200:	2200      	movs	r2, #0
10003202:	2100      	movs	r1, #0
10003204:	2009      	movs	r0, #9
10003206:	4b13      	ldr	r3, [pc, #76]	@ (10003254 <runtime_init_clocks+0xd0>)
10003208:	f7ff fdee 	bl	10002de8 <clock_configure_int_divider>
1000320c:	2200      	movs	r2, #0
1000320e:	4b10      	ldr	r3, [pc, #64]	@ (10003250 <runtime_init_clocks+0xcc>)
10003210:	2100      	movs	r1, #0
10003212:	2006      	movs	r0, #6
10003214:	f7ff fe62 	bl	10002edc <clock_configure_undivided>
10003218:	2004      	movs	r0, #4
1000321a:	f7ff fed3 	bl	10002fc4 <clock_get_hz>
1000321e:	490e      	ldr	r1, [pc, #56]	@ (10003258 <runtime_init_clocks+0xd4>)
10003220:	f000 f856 	bl	100032d0 <__wrap___aeabi_uidiv>
10003224:	0001      	movs	r1, r0
10003226:	2000      	movs	r0, #0
10003228:	f7ff ff24 	bl	10003074 <tick_start>
1000322c:	b002      	add	sp, #8
1000322e:	bd10      	pop	{r4, pc}
10003230:	40008000 	.word	0x40008000
10003234:	4000b03c 	.word	0x4000b03c
10003238:	4000b030 	.word	0x4000b030
1000323c:	59682f00 	.word	0x59682f00
10003240:	40028000 	.word	0x40028000
10003244:	47868c00 	.word	0x47868c00
10003248:	4002c000 	.word	0x4002c000
1000324c:	00b71b00 	.word	0x00b71b00
10003250:	07735940 	.word	0x07735940
10003254:	02dc6c00 	.word	0x02dc6c00
10003258:	000f4240 	.word	0x000f4240

1000325c <__aeabi_bits_init>:
1000325c:	4801      	ldr	r0, [pc, #4]	@ (10003264 <__aeabi_bits_init+0x8>)
1000325e:	2104      	movs	r1, #4
10003260:	4b01      	ldr	r3, [pc, #4]	@ (10003268 <__aeabi_bits_init+0xc>)
10003262:	4718      	bx	r3
10003264:	20000280 	.word	0x20000280
10003268:	1000328d 	.word	0x1000328d

1000326c <rom_func_lookup>:
1000326c:	2314      	movs	r3, #20
1000326e:	b510      	push	{r4, lr}
10003270:	0001      	movs	r1, r0
10003272:	8818      	ldrh	r0, [r3, #0]
10003274:	3304      	adds	r3, #4
10003276:	881b      	ldrh	r3, [r3, #0]
10003278:	4798      	blx	r3
1000327a:	bd10      	pop	{r4, pc}

1000327c <rom_data_lookup>:
1000327c:	2316      	movs	r3, #22
1000327e:	b510      	push	{r4, lr}
10003280:	0001      	movs	r1, r0
10003282:	8818      	ldrh	r0, [r3, #0]
10003284:	3302      	adds	r3, #2
10003286:	881b      	ldrh	r3, [r3, #0]
10003288:	4798      	blx	r3
1000328a:	bd10      	pop	{r4, pc}

1000328c <rom_funcs_lookup>:
1000328c:	b5f8      	push	{r3, r4, r5, r6, r7, lr}
1000328e:	4647      	mov	r7, r8
10003290:	46ce      	mov	lr, r9
10003292:	b580      	push	{r7, lr}
10003294:	1e0f      	subs	r7, r1, #0
10003296:	d019      	beq.n	100032cc <rom_funcs_lookup+0x40>
10003298:	2314      	movs	r3, #20
1000329a:	4699      	mov	r9, r3
1000329c:	3304      	adds	r3, #4
1000329e:	0004      	movs	r4, r0
100032a0:	2500      	movs	r5, #0
100032a2:	2601      	movs	r6, #1
100032a4:	4698      	mov	r8, r3
100032a6:	464b      	mov	r3, r9
100032a8:	8818      	ldrh	r0, [r3, #0]
100032aa:	4643      	mov	r3, r8
100032ac:	6821      	ldr	r1, [r4, #0]
100032ae:	881b      	ldrh	r3, [r3, #0]
100032b0:	4798      	blx	r3
100032b2:	c401      	stmia	r4!, {r0}
100032b4:	1e43      	subs	r3, r0, #1
100032b6:	4198      	sbcs	r0, r3
100032b8:	3501      	adds	r5, #1
100032ba:	4240      	negs	r0, r0
100032bc:	4006      	ands	r6, r0
100032be:	42af      	cmp	r7, r5
100032c0:	d1f1      	bne.n	100032a6 <rom_funcs_lookup+0x1a>
100032c2:	0030      	movs	r0, r6
100032c4:	bcc0      	pop	{r6, r7}
100032c6:	46b9      	mov	r9, r7
100032c8:	46b0      	mov	r8, r6
100032ca:	bdf8      	pop	{r3, r4, r5, r6, r7, pc}
100032cc:	2601      	movs	r6, #1
100032ce:	e7f8      	b.n	100032c2 <rom_funcs_lookup+0x36>

100032d0 <__wrap___aeabi_uidiv>:
100032d0:	4a11      	ldr	r2, [pc, #68]	@ (10003318 <divmod_u32u32_savestate+0x18>)
100032d2:	6f93      	ldr	r3, [r2, #120]	@ 0x78
100032d4:	089b      	lsrs	r3, r3, #2
100032d6:	d213      	bcs.n	10003300 <divmod_u32u32_savestate>

100032d8 <divmod_u32u32_unsafe>:
100032d8:	6610      	str	r0, [r2, #96]	@ 0x60
100032da:	6651      	str	r1, [r2, #100]	@ 0x64
100032dc:	2900      	cmp	r1, #0
100032de:	d005      	beq.n	100032ec <divmod_u32u32_unsafe+0x14>
100032e0:	e7ff      	b.n	100032e2 <divmod_u32u32_unsafe+0xa>
100032e2:	e7ff      	b.n	100032e4 <divmod_u32u32_unsafe+0xc>
100032e4:	e7ff      	b.n	100032e6 <divmod_u32u32_unsafe+0xe>
100032e6:	6f51      	ldr	r1, [r2, #116]	@ 0x74
100032e8:	6f10      	ldr	r0, [r2, #112]	@ 0x70
100032ea:	4770      	bx	lr
100032ec:	b504      	push	{r2, lr}
100032ee:	2800      	cmp	r0, #0
100032f0:	d001      	beq.n	100032f6 <divmod_u32u32_unsafe+0x1e>
100032f2:	2000      	movs	r0, #0
100032f4:	43c0      	mvns	r0, r0
100032f6:	f000 fbfb 	bl	10003af0 <____aeabi_idiv0_veneer>
100032fa:	2100      	movs	r1, #0
100032fc:	bd04      	pop	{r2, pc}
100032fe:	46c0      	nop			@ (mov r8, r8)

10003300 <divmod_u32u32_savestate>:
10003300:	b5f0      	push	{r4, r5, r6, r7, lr}
10003302:	6e14      	ldr	r4, [r2, #96]	@ 0x60
10003304:	6e55      	ldr	r5, [r2, #100]	@ 0x64
10003306:	6f57      	ldr	r7, [r2, #116]	@ 0x74
10003308:	6f16      	ldr	r6, [r2, #112]	@ 0x70
1000330a:	f7ff ffe5 	bl	100032d8 <divmod_u32u32_unsafe>
1000330e:	6614      	str	r4, [r2, #96]	@ 0x60
10003310:	6655      	str	r5, [r2, #100]	@ 0x64
10003312:	6757      	str	r7, [r2, #116]	@ 0x74
10003314:	6716      	str	r6, [r2, #112]	@ 0x70
10003316:	bdf0      	pop	{r4, r5, r6, r7, pc}
10003318:	d0000000 	.word	0xd0000000

1000331c <__aeabi_double_init>:
1000331c:	2313      	movs	r3, #19
1000331e:	b570      	push	{r4, r5, r6, lr}
10003320:	781d      	ldrb	r5, [r3, #0]
10003322:	2d01      	cmp	r5, #1
10003324:	d019      	beq.n	1000335a <__aeabi_double_init+0x3e>
10003326:	dd14      	ble.n	10003352 <__aeabi_double_init+0x36>
10003328:	481f      	ldr	r0, [pc, #124]	@ (100033a8 <__aeabi_double_init+0x8c>)
1000332a:	f7ff ffa7 	bl	1000327c <rom_data_lookup>
1000332e:	0006      	movs	r6, r0
10003330:	481e      	ldr	r0, [pc, #120]	@ (100033ac <__aeabi_double_init+0x90>)
10003332:	f7ff ffa3 	bl	1000327c <rom_data_lookup>
10003336:	4c1e      	ldr	r4, [pc, #120]	@ (100033b0 <__aeabi_double_init+0x94>)
10003338:	2280      	movs	r2, #128	@ 0x80
1000333a:	0031      	movs	r1, r6
1000333c:	0020      	movs	r0, r4
1000333e:	f000 f8c5 	bl	100034cc <__wrap___aeabi_memcpy>
10003342:	2d02      	cmp	r5, #2
10003344:	d02d      	beq.n	100033a2 <__aeabi_double_init+0x86>
10003346:	481b      	ldr	r0, [pc, #108]	@ (100033b4 <__aeabi_double_init+0x98>)
10003348:	f7ff ff90 	bl	1000326c <rom_func_lookup>
1000334c:	4b1a      	ldr	r3, [pc, #104]	@ (100033b8 <__aeabi_double_init+0x9c>)
1000334e:	6018      	str	r0, [r3, #0]
10003350:	bd70      	pop	{r4, r5, r6, pc}
10003352:	4b1a      	ldr	r3, [pc, #104]	@ (100033bc <__aeabi_double_init+0xa0>)
10003354:	4c16      	ldr	r4, [pc, #88]	@ (100033b0 <__aeabi_double_init+0x94>)
10003356:	64a3      	str	r3, [r4, #72]	@ 0x48
10003358:	e7f5      	b.n	10003346 <__aeabi_double_init+0x2a>
1000335a:	4b18      	ldr	r3, [pc, #96]	@ (100033bc <__aeabi_double_init+0xa0>)
1000335c:	4c14      	ldr	r4, [pc, #80]	@ (100033b0 <__aeabi_double_init+0x94>)
1000335e:	6023      	str	r3, [r4, #0]
10003360:	6063      	str	r3, [r4, #4]
10003362:	60a3      	str	r3, [r4, #8]
10003364:	60e3      	str	r3, [r4, #12]
10003366:	6123      	str	r3, [r4, #16]
10003368:	6163      	str	r3, [r4, #20]
1000336a:	61a3      	str	r3, [r4, #24]
1000336c:	61e3      	str	r3, [r4, #28]
1000336e:	6223      	str	r3, [r4, #32]
10003370:	6263      	str	r3, [r4, #36]	@ 0x24
10003372:	62a3      	str	r3, [r4, #40]	@ 0x28
10003374:	62e3      	str	r3, [r4, #44]	@ 0x2c
10003376:	6323      	str	r3, [r4, #48]	@ 0x30
10003378:	6363      	str	r3, [r4, #52]	@ 0x34
1000337a:	63a3      	str	r3, [r4, #56]	@ 0x38
1000337c:	63e3      	str	r3, [r4, #60]	@ 0x3c
1000337e:	6423      	str	r3, [r4, #64]	@ 0x40
10003380:	6463      	str	r3, [r4, #68]	@ 0x44
10003382:	64a3      	str	r3, [r4, #72]	@ 0x48
10003384:	64e3      	str	r3, [r4, #76]	@ 0x4c
10003386:	6523      	str	r3, [r4, #80]	@ 0x50
10003388:	6563      	str	r3, [r4, #84]	@ 0x54
1000338a:	65a3      	str	r3, [r4, #88]	@ 0x58
1000338c:	65e3      	str	r3, [r4, #92]	@ 0x5c
1000338e:	6623      	str	r3, [r4, #96]	@ 0x60
10003390:	6663      	str	r3, [r4, #100]	@ 0x64
10003392:	66a3      	str	r3, [r4, #104]	@ 0x68
10003394:	66e3      	str	r3, [r4, #108]	@ 0x6c
10003396:	6723      	str	r3, [r4, #112]	@ 0x70
10003398:	6763      	str	r3, [r4, #116]	@ 0x74
1000339a:	67a3      	str	r3, [r4, #120]	@ 0x78
1000339c:	67e3      	str	r3, [r4, #124]	@ 0x7c
1000339e:	64a3      	str	r3, [r4, #72]	@ 0x48
100033a0:	e7d1      	b.n	10003346 <__aeabi_double_init+0x2a>
100033a2:	4b06      	ldr	r3, [pc, #24]	@ (100033bc <__aeabi_double_init+0xa0>)
100033a4:	64a3      	str	r3, [r4, #72]	@ 0x48
100033a6:	e7ce      	b.n	10003346 <__aeabi_double_init+0x2a>
100033a8:	00004453 	.word	0x00004453
100033ac:	00004653 	.word	0x00004653
100033b0:	20000440 	.word	0x20000440
100033b4:	0000334c 	.word	0x0000334c
100033b8:	20000c28 	.word	0x20000c28
100033bc:	100033c1 	.word	0x100033c1

100033c0 <double_table_shim_on_use_helper>:
100033c0:	b507      	push	{r0, r1, r2, lr}
100033c2:	4660      	mov	r0, ip
100033c4:	8801      	ldrh	r1, [r0, #0]
100033c6:	0a0a      	lsrs	r2, r1, #8
100033c8:	3002      	adds	r0, #2
100033ca:	2adf      	cmp	r2, #223	@ 0xdf
100033cc:	d1fa      	bne.n	100033c4 <double_table_shim_on_use_helper+0x4>
100033ce:	b2c9      	uxtb	r1, r1
100033d0:	0882      	lsrs	r2, r0, #2
100033d2:	d304      	bcc.n	100033de <double_table_shim_on_use_helper+0x1e>
100033d4:	8802      	ldrh	r2, [r0, #0]
100033d6:	8840      	ldrh	r0, [r0, #2]
100033d8:	0400      	lsls	r0, r0, #16
100033da:	4310      	orrs	r0, r2
100033dc:	e000      	b.n	100033e0 <double_table_shim_on_use_helper+0x20>
100033de:	6800      	ldr	r0, [r0, #0]
100033e0:	4a01      	ldr	r2, [pc, #4]	@ (100033e8 <double_table_shim_on_use_helper+0x28>)
100033e2:	5050      	str	r0, [r2, r1]
100033e4:	9003      	str	r0, [sp, #12]
100033e6:	bd07      	pop	{r0, r1, r2, pc}
100033e8:	20000440 	.word	0x20000440

100033ec <__wrap___aeabi_lmul>:
100033ec:	4351      	muls	r1, r2
100033ee:	4343      	muls	r3, r0
100033f0:	18c9      	adds	r1, r1, r3
100033f2:	468c      	mov	ip, r1
100033f4:	0c11      	lsrs	r1, r2, #16
100033f6:	b283      	uxth	r3, r0
100033f8:	434b      	muls	r3, r1
100033fa:	b410      	push	{r4}
100033fc:	0c04      	lsrs	r4, r0, #16
100033fe:	4361      	muls	r1, r4
10003400:	b292      	uxth	r2, r2
10003402:	b280      	uxth	r0, r0
10003404:	4350      	muls	r0, r2
10003406:	4362      	muls	r2, r4
10003408:	041c      	lsls	r4, r3, #16
1000340a:	0c1b      	lsrs	r3, r3, #16
1000340c:	1900      	adds	r0, r0, r4
1000340e:	bc10      	pop	{r4}
10003410:	4159      	adcs	r1, r3
10003412:	0413      	lsls	r3, r2, #16
10003414:	0c12      	lsrs	r2, r2, #16
10003416:	18c0      	adds	r0, r0, r3
10003418:	4151      	adcs	r1, r2
1000341a:	4461      	add	r1, ip
1000341c:	4770      	bx	lr
	...

10003420 <__aeabi_float_init>:
10003420:	2313      	movs	r3, #19
10003422:	b510      	push	{r4, lr}
10003424:	4812      	ldr	r0, [pc, #72]	@ (10003470 <__aeabi_float_init+0x50>)
10003426:	781c      	ldrb	r4, [r3, #0]
10003428:	f7ff ff28 	bl	1000327c <rom_data_lookup>
1000342c:	0001      	movs	r1, r0
1000342e:	2c01      	cmp	r4, #1
10003430:	d00a      	beq.n	10003448 <__aeabi_float_init+0x28>
10003432:	dd03      	ble.n	1000343c <__aeabi_float_init+0x1c>
10003434:	2280      	movs	r2, #128	@ 0x80
10003436:	480f      	ldr	r0, [pc, #60]	@ (10003474 <__aeabi_float_init+0x54>)
10003438:	f000 f848 	bl	100034cc <__wrap___aeabi_memcpy>
1000343c:	480e      	ldr	r0, [pc, #56]	@ (10003478 <__aeabi_float_init+0x58>)
1000343e:	f7ff ff15 	bl	1000326c <rom_func_lookup>
10003442:	4b0e      	ldr	r3, [pc, #56]	@ (1000347c <__aeabi_float_init+0x5c>)
10003444:	6018      	str	r0, [r3, #0]
10003446:	bd10      	pop	{r4, pc}
10003448:	4c0a      	ldr	r4, [pc, #40]	@ (10003474 <__aeabi_float_init+0x54>)
1000344a:	2254      	movs	r2, #84	@ 0x54
1000344c:	0020      	movs	r0, r4
1000344e:	f000 f83d 	bl	100034cc <__wrap___aeabi_memcpy>
10003452:	4b0b      	ldr	r3, [pc, #44]	@ (10003480 <__aeabi_float_init+0x60>)
10003454:	6563      	str	r3, [r4, #84]	@ 0x54
10003456:	65a3      	str	r3, [r4, #88]	@ 0x58
10003458:	65e3      	str	r3, [r4, #92]	@ 0x5c
1000345a:	6623      	str	r3, [r4, #96]	@ 0x60
1000345c:	6663      	str	r3, [r4, #100]	@ 0x64
1000345e:	66a3      	str	r3, [r4, #104]	@ 0x68
10003460:	66e3      	str	r3, [r4, #108]	@ 0x6c
10003462:	6723      	str	r3, [r4, #112]	@ 0x70
10003464:	6763      	str	r3, [r4, #116]	@ 0x74
10003466:	67a3      	str	r3, [r4, #120]	@ 0x78
10003468:	67e3      	str	r3, [r4, #124]	@ 0x7c
1000346a:	6223      	str	r3, [r4, #32]
1000346c:	61e3      	str	r3, [r4, #28]
1000346e:	e7e5      	b.n	1000343c <__aeabi_float_init+0x1c>
10003470:	00004653 	.word	0x00004653
10003474:	20000540 	.word	0x20000540
10003478:	0000334c 	.word	0x0000334c
1000347c:	20000c28 	.word	0x20000c28
10003480:	10003485 	.word	0x10003485

10003484 <float_table_shim_on_use_helper>:
10003484:	b507      	push	{r0, r1, r2, lr}
10003486:	4660      	mov	r0, ip
10003488:	8801      	ldrh	r1, [r0, #0]
1000348a:	0a0a      	lsrs	r2, r1, #8
1000348c:	3002      	adds	r0, #2
1000348e:	2adf      	cmp	r2, #223	@ 0xdf
10003490:	d1fa      	bne.n	10003488 <float_table_shim_on_use_helper+0x4>
10003492:	b2c9      	uxtb	r1, r1
10003494:	0882      	lsrs	r2, r0, #2
10003496:	d304      	bcc.n	100034a2 <float_table_shim_on_use_helper+0x1e>
10003498:	8802      	ldrh	r2, [r0, #0]
1000349a:	8840      	ldrh	r0, [r0, #2]
1000349c:	0400      	lsls	r0, r0, #16
1000349e:	4310      	orrs	r0, r2
100034a0:	e000      	b.n	100034a4 <float_table_shim_on_use_helper+0x20>
100034a2:	6800      	ldr	r0, [r0, #0]
100034a4:	4a01      	ldr	r2, [pc, #4]	@ (100034ac <float_table_shim_on_use_helper+0x28>)
100034a6:	5050      	str	r0, [r2, r1]
100034a8:	9003      	str	r0, [sp, #12]
100034aa:	bd07      	pop	{r0, r1, r2, pc}
100034ac:	20000540 	.word	0x20000540

100034b0 <__aeabi_mem_init>:
100034b0:	4801      	ldr	r0, [pc, #4]	@ (100034b8 <__aeabi_mem_init+0x8>)
100034b2:	2104      	movs	r1, #4
100034b4:	4b01      	ldr	r3, [pc, #4]	@ (100034bc <__aeabi_mem_init+0xc>)
100034b6:	4718      	bx	r3
100034b8:	20000290 	.word	0x20000290
100034bc:	1000328d 	.word	0x1000328d

100034c0 <__wrap_memset>:
100034c0:	4b01      	ldr	r3, [pc, #4]	@ (100034c8 <__wrap_memset+0x8>)
100034c2:	681b      	ldr	r3, [r3, #0]
100034c4:	4718      	bx	r3
100034c6:	0000      	.short	0x0000
100034c8:	20000290 	.word	0x20000290

100034cc <__wrap___aeabi_memcpy>:
100034cc:	4b01      	ldr	r3, [pc, #4]	@ (100034d4 <__wrap___aeabi_memcpy+0x8>)
100034ce:	685b      	ldr	r3, [r3, #4]
100034d0:	4718      	bx	r3
100034d2:	0000      	.short	0x0000
100034d4:	20000290 	.word	0x20000290

100034d8 <_out_char>:
100034d8:	b510      	push	{r4, lr}
100034da:	2800      	cmp	r0, #0
100034dc:	d100      	bne.n	100034e0 <_out_char+0x8>
100034de:	bd10      	pop	{r4, pc}
100034e0:	f000 f926 	bl	10003730 <__wrap_putchar>
100034e4:	e7fb      	b.n	100034de <_out_char+0x6>
100034e6:	46c0      	nop			@ (mov r8, r8)

100034e8 <weak_raw_vprintf>:
100034e8:	b510      	push	{r4, lr}
100034ea:	4a09      	ldr	r2, [pc, #36]	@ (10003510 <weak_raw_vprintf+0x28>)
100034ec:	0003      	movs	r3, r0
100034ee:	6814      	ldr	r4, [r2, #0]
100034f0:	b084      	sub	sp, #16
100034f2:	2c00      	cmp	r4, #0
100034f4:	d008      	beq.n	10003508 <weak_raw_vprintf+0x20>
100034f6:	2201      	movs	r2, #1
100034f8:	9100      	str	r1, [sp, #0]
100034fa:	4806      	ldr	r0, [pc, #24]	@ (10003514 <weak_raw_vprintf+0x2c>)
100034fc:	4252      	negs	r2, r2
100034fe:	a903      	add	r1, sp, #12
10003500:	47a0      	blx	r4
10003502:	2001      	movs	r0, #1
10003504:	b004      	add	sp, #16
10003506:	bd10      	pop	{r4, pc}
10003508:	f000 f95e 	bl	100037c8 <__wrap_puts>
1000350c:	2000      	movs	r0, #0
1000350e:	e7f9      	b.n	10003504 <weak_raw_vprintf+0x1c>
10003510:	2000080c 	.word	0x2000080c
10003514:	100034d9 	.word	0x100034d9

10003518 <_exit>:
10003518:	be00      	bkpt	0x0000
1000351a:	e7fd      	b.n	10003518 <_exit>

1000351c <exit>:
1000351c:	b510      	push	{r4, lr}
1000351e:	f7ff fffb 	bl	10003518 <_exit>
10003522:	46c0      	nop			@ (mov r8, r8)

10003524 <runtime_init>:
10003524:	b570      	push	{r4, r5, r6, lr}
10003526:	f7ff fdc9 	bl	100030bc <runtime_run_initializers>
1000352a:	4d07      	ldr	r5, [pc, #28]	@ (10003548 <runtime_init+0x24>)
1000352c:	4e07      	ldr	r6, [pc, #28]	@ (1000354c <runtime_init+0x28>)
1000352e:	42b5      	cmp	r5, r6
10003530:	d209      	bcs.n	10003546 <runtime_init+0x22>
10003532:	2400      	movs	r4, #0
10003534:	3e01      	subs	r6, #1
10003536:	1b76      	subs	r6, r6, r5
10003538:	08b6      	lsrs	r6, r6, #2
1000353a:	cd08      	ldmia	r5!, {r3}
1000353c:	4798      	blx	r3
1000353e:	0023      	movs	r3, r4
10003540:	3401      	adds	r4, #1
10003542:	42b3      	cmp	r3, r6
10003544:	d1f9      	bne.n	1000353a <runtime_init+0x16>
10003546:	bd70      	pop	{r4, r5, r6, pc}
10003548:	10003b4c 	.word	0x10003b4c
1000354c:	10003b50 	.word	0x10003b50

10003550 <stdio_out_chars_no_crlf>:
10003550:	0003      	movs	r3, r0
10003552:	b510      	push	{r4, lr}
10003554:	0008      	movs	r0, r1
10003556:	0011      	movs	r1, r2
10003558:	681b      	ldr	r3, [r3, #0]
1000355a:	4798      	blx	r3
1000355c:	bd10      	pop	{r4, pc}
1000355e:	46c0      	nop			@ (mov r8, r8)

10003560 <stdio_out_chars_crlf>:
10003560:	b5f0      	push	{r4, r5, r6, r7, lr}
10003562:	46c6      	mov	lr, r8
10003564:	b500      	push	{lr}
10003566:	7d43      	ldrb	r3, [r0, #21]
10003568:	0007      	movs	r7, r0
1000356a:	000d      	movs	r5, r1
1000356c:	0016      	movs	r6, r2
1000356e:	2b00      	cmp	r3, #0
10003570:	d038      	beq.n	100035e4 <stdio_out_chars_crlf+0x84>
10003572:	2a00      	cmp	r2, #0
10003574:	dd2e      	ble.n	100035d4 <stdio_out_chars_crlf+0x74>
10003576:	2100      	movs	r1, #0
10003578:	1e6a      	subs	r2, r5, #1
1000357a:	4690      	mov	r8, r2
1000357c:	5c6a      	ldrb	r2, [r5, r1]
1000357e:	7d03      	ldrb	r3, [r0, #20]
10003580:	1c4c      	adds	r4, r1, #1
10003582:	2000      	movs	r0, #0
10003584:	2a0a      	cmp	r2, #10
10003586:	d00c      	beq.n	100035a2 <stdio_out_chars_crlf+0x42>
10003588:	42a6      	cmp	r6, r4
1000358a:	d016      	beq.n	100035ba <stdio_out_chars_crlf+0x5a>
1000358c:	4643      	mov	r3, r8
1000358e:	5d1b      	ldrb	r3, [r3, r4]
10003590:	0021      	movs	r1, r4
10003592:	3b0d      	subs	r3, #13
10003594:	425a      	negs	r2, r3
10003596:	4153      	adcs	r3, r2
10003598:	5c6a      	ldrb	r2, [r5, r1]
1000359a:	b2db      	uxtb	r3, r3
1000359c:	1c4c      	adds	r4, r1, #1
1000359e:	2a0a      	cmp	r2, #10
100035a0:	d1f2      	bne.n	10003588 <stdio_out_chars_crlf+0x28>
100035a2:	2b00      	cmp	r3, #0
100035a4:	d1f0      	bne.n	10003588 <stdio_out_chars_crlf+0x28>
100035a6:	4288      	cmp	r0, r1
100035a8:	db17      	blt.n	100035da <stdio_out_chars_crlf+0x7a>
100035aa:	2102      	movs	r1, #2
100035ac:	4810      	ldr	r0, [pc, #64]	@ (100035f0 <stdio_out_chars_crlf+0x90>)
100035ae:	683b      	ldr	r3, [r7, #0]
100035b0:	4798      	blx	r3
100035b2:	42a6      	cmp	r6, r4
100035b4:	d007      	beq.n	100035c6 <stdio_out_chars_crlf+0x66>
100035b6:	0020      	movs	r0, r4
100035b8:	e7e8      	b.n	1000358c <stdio_out_chars_crlf+0x2c>
100035ba:	4286      	cmp	r6, r0
100035bc:	dd03      	ble.n	100035c6 <stdio_out_chars_crlf+0x66>
100035be:	1a31      	subs	r1, r6, r0
100035c0:	683b      	ldr	r3, [r7, #0]
100035c2:	1828      	adds	r0, r5, r0
100035c4:	4798      	blx	r3
100035c6:	19ad      	adds	r5, r5, r6
100035c8:	3d01      	subs	r5, #1
100035ca:	782b      	ldrb	r3, [r5, #0]
100035cc:	3b0d      	subs	r3, #13
100035ce:	425a      	negs	r2, r3
100035d0:	4153      	adcs	r3, r2
100035d2:	753b      	strb	r3, [r7, #20]
100035d4:	bc80      	pop	{r7}
100035d6:	46b8      	mov	r8, r7
100035d8:	bdf0      	pop	{r4, r5, r6, r7, pc}
100035da:	1a09      	subs	r1, r1, r0
100035dc:	683b      	ldr	r3, [r7, #0]
100035de:	1828      	adds	r0, r5, r0
100035e0:	4798      	blx	r3
100035e2:	e7e2      	b.n	100035aa <stdio_out_chars_crlf+0x4a>
100035e4:	6803      	ldr	r3, [r0, #0]
100035e6:	0011      	movs	r1, r2
100035e8:	0028      	movs	r0, r5
100035ea:	4798      	blx	r3
100035ec:	e7f2      	b.n	100035d4 <stdio_out_chars_crlf+0x74>
100035ee:	46c0      	nop			@ (mov r8, r8)
100035f0:	10004158 	.word	0x10004158

100035f4 <stdio_put_string>:
100035f4:	b5f0      	push	{r4, r5, r6, r7, lr}
100035f6:	46de      	mov	lr, fp
100035f8:	4657      	mov	r7, sl
100035fa:	464e      	mov	r6, r9
100035fc:	4645      	mov	r5, r8
100035fe:	b5e0      	push	{r5, r6, r7, lr}
10003600:	b085      	sub	sp, #20
10003602:	0017      	movs	r7, r2
10003604:	001c      	movs	r4, r3
10003606:	0006      	movs	r6, r0
10003608:	000d      	movs	r5, r1
1000360a:	f7ff fa4b 	bl	10002aa4 <time_us_64>
1000360e:	2300      	movs	r3, #0
10003610:	4a31      	ldr	r2, [pc, #196]	@ (100036d8 <stdio_put_string+0xe4>)
10003612:	1812      	adds	r2, r2, r0
10003614:	414b      	adcs	r3, r1
10003616:	2180      	movs	r1, #128	@ 0x80
10003618:	0609      	lsls	r1, r1, #24
1000361a:	428b      	cmp	r3, r1
1000361c:	d302      	bcc.n	10003624 <stdio_put_string+0x30>
1000361e:	2201      	movs	r2, #1
10003620:	4b2e      	ldr	r3, [pc, #184]	@ (100036dc <stdio_put_string+0xe8>)
10003622:	4252      	negs	r2, r2
10003624:	492e      	ldr	r1, [pc, #184]	@ (100036e0 <stdio_put_string+0xec>)
10003626:	0008      	movs	r0, r1
10003628:	468a      	mov	sl, r1
1000362a:	f000 fa69 	bl	10003b00 <__mutex_try_enter_block_until_veneer>
1000362e:	9001      	str	r0, [sp, #4]
10003630:	1c6b      	adds	r3, r5, #1
10003632:	d103      	bne.n	1000363c <stdio_put_string+0x48>
10003634:	0030      	movs	r0, r6
10003636:	f000 fa21 	bl	10003a7c <strlen>
1000363a:	0005      	movs	r5, r0
1000363c:	2c00      	cmp	r4, #0
1000363e:	d026      	beq.n	1000368e <stdio_put_string+0x9a>
10003640:	4b28      	ldr	r3, [pc, #160]	@ (100036e4 <stdio_put_string+0xf0>)
10003642:	4698      	mov	r8, r3
10003644:	4b28      	ldr	r3, [pc, #160]	@ (100036e8 <stdio_put_string+0xf4>)
10003646:	681c      	ldr	r4, [r3, #0]
10003648:	2c00      	cmp	r4, #0
1000364a:	d015      	beq.n	10003678 <stdio_put_string+0x84>
1000364c:	2f00      	cmp	r7, #0
1000364e:	d121      	bne.n	10003694 <stdio_put_string+0xa0>
10003650:	4f26      	ldr	r7, [pc, #152]	@ (100036ec <stdio_put_string+0xf8>)
10003652:	e002      	b.n	1000365a <stdio_put_string+0x66>
10003654:	6924      	ldr	r4, [r4, #16]
10003656:	2c00      	cmp	r4, #0
10003658:	d00e      	beq.n	10003678 <stdio_put_string+0x84>
1000365a:	6823      	ldr	r3, [r4, #0]
1000365c:	2b00      	cmp	r3, #0
1000365e:	d0f9      	beq.n	10003654 <stdio_put_string+0x60>
10003660:	683b      	ldr	r3, [r7, #0]
10003662:	2b00      	cmp	r3, #0
10003664:	d001      	beq.n	1000366a <stdio_put_string+0x76>
10003666:	429c      	cmp	r4, r3
10003668:	d1f4      	bne.n	10003654 <stdio_put_string+0x60>
1000366a:	0020      	movs	r0, r4
1000366c:	002a      	movs	r2, r5
1000366e:	0031      	movs	r1, r6
10003670:	47c0      	blx	r8
10003672:	6924      	ldr	r4, [r4, #16]
10003674:	2c00      	cmp	r4, #0
10003676:	d1f0      	bne.n	1000365a <stdio_put_string+0x66>
10003678:	9b01      	ldr	r3, [sp, #4]
1000367a:	2b00      	cmp	r3, #0
1000367c:	d128      	bne.n	100036d0 <stdio_put_string+0xdc>
1000367e:	0028      	movs	r0, r5
10003680:	b005      	add	sp, #20
10003682:	bcf0      	pop	{r4, r5, r6, r7}
10003684:	46bb      	mov	fp, r7
10003686:	46b2      	mov	sl, r6
10003688:	46a9      	mov	r9, r5
1000368a:	46a0      	mov	r8, r4
1000368c:	bdf0      	pop	{r4, r5, r6, r7, pc}
1000368e:	4b18      	ldr	r3, [pc, #96]	@ (100036f0 <stdio_put_string+0xfc>)
10003690:	4698      	mov	r8, r3
10003692:	e7d7      	b.n	10003644 <stdio_put_string+0x50>
10003694:	4b15      	ldr	r3, [pc, #84]	@ (100036ec <stdio_put_string+0xf8>)
10003696:	4699      	mov	r9, r3
10003698:	ab02      	add	r3, sp, #8
1000369a:	1ddf      	adds	r7, r3, #7
1000369c:	230a      	movs	r3, #10
1000369e:	469b      	mov	fp, r3
100036a0:	e002      	b.n	100036a8 <stdio_put_string+0xb4>
100036a2:	6924      	ldr	r4, [r4, #16]
100036a4:	2c00      	cmp	r4, #0
100036a6:	d0e7      	beq.n	10003678 <stdio_put_string+0x84>
100036a8:	6823      	ldr	r3, [r4, #0]
100036aa:	2b00      	cmp	r3, #0
100036ac:	d0f9      	beq.n	100036a2 <stdio_put_string+0xae>
100036ae:	464b      	mov	r3, r9
100036b0:	681b      	ldr	r3, [r3, #0]
100036b2:	2b00      	cmp	r3, #0
100036b4:	d001      	beq.n	100036ba <stdio_put_string+0xc6>
100036b6:	42a3      	cmp	r3, r4
100036b8:	d1f3      	bne.n	100036a2 <stdio_put_string+0xae>
100036ba:	002a      	movs	r2, r5
100036bc:	0031      	movs	r1, r6
100036be:	0020      	movs	r0, r4
100036c0:	47c0      	blx	r8
100036c2:	465b      	mov	r3, fp
100036c4:	2201      	movs	r2, #1
100036c6:	0039      	movs	r1, r7
100036c8:	0020      	movs	r0, r4
100036ca:	703b      	strb	r3, [r7, #0]
100036cc:	47c0      	blx	r8
100036ce:	e7e8      	b.n	100036a2 <stdio_put_string+0xae>
100036d0:	4650      	mov	r0, sl
100036d2:	f000 fa05 	bl	10003ae0 <__mutex_exit_veneer>
100036d6:	e7d2      	b.n	1000367e <stdio_put_string+0x8a>
100036d8:	000f4240 	.word	0x000f4240
100036dc:	7fffffff 	.word	0x7fffffff
100036e0:	200002b8 	.word	0x200002b8
100036e4:	10003561 	.word	0x10003561
100036e8:	200006c4 	.word	0x200006c4
100036ec:	20000740 	.word	0x20000740
100036f0:	10003551 	.word	0x10003551

100036f4 <stdio_set_driver_enabled>:
100036f4:	4a0a      	ldr	r2, [pc, #40]	@ (10003720 <stdio_set_driver_enabled+0x2c>)
100036f6:	6813      	ldr	r3, [r2, #0]
100036f8:	2b00      	cmp	r3, #0
100036fa:	d105      	bne.n	10003708 <stdio_set_driver_enabled+0x14>
100036fc:	e00c      	b.n	10003718 <stdio_set_driver_enabled+0x24>
100036fe:	001a      	movs	r2, r3
10003700:	691b      	ldr	r3, [r3, #16]
10003702:	3210      	adds	r2, #16
10003704:	2b00      	cmp	r3, #0
10003706:	d007      	beq.n	10003718 <stdio_set_driver_enabled+0x24>
10003708:	4298      	cmp	r0, r3
1000370a:	d1f8      	bne.n	100036fe <stdio_set_driver_enabled+0xa>
1000370c:	2900      	cmp	r1, #0
1000370e:	d102      	bne.n	10003716 <stdio_set_driver_enabled+0x22>
10003710:	6903      	ldr	r3, [r0, #16]
10003712:	6013      	str	r3, [r2, #0]
10003714:	6101      	str	r1, [r0, #16]
10003716:	4770      	bx	lr
10003718:	2900      	cmp	r1, #0
1000371a:	d0fc      	beq.n	10003716 <stdio_set_driver_enabled+0x22>
1000371c:	6010      	str	r0, [r2, #0]
1000371e:	e7fa      	b.n	10003716 <stdio_set_driver_enabled+0x22>
10003720:	200006c4 	.word	0x200006c4

10003724 <stdio_init_all>:
10003724:	b510      	push	{r4, lr}
10003726:	f000 f93d 	bl	100039a4 <stdio_uart_init>
1000372a:	2001      	movs	r0, #1
1000372c:	bd10      	pop	{r4, pc}
1000372e:	46c0      	nop			@ (mov r8, r8)

10003730 <__wrap_putchar>:
10003730:	b5f0      	push	{r4, r5, r6, r7, lr}
10003732:	46ce      	mov	lr, r9
10003734:	4647      	mov	r7, r8
10003736:	b580      	push	{r7, lr}
10003738:	b083      	sub	sp, #12
1000373a:	466b      	mov	r3, sp
1000373c:	0006      	movs	r6, r0
1000373e:	1ddd      	adds	r5, r3, #7
10003740:	7028      	strb	r0, [r5, #0]
10003742:	f7ff f9af 	bl	10002aa4 <time_us_64>
10003746:	2300      	movs	r3, #0
10003748:	4a1a      	ldr	r2, [pc, #104]	@ (100037b4 <__wrap_putchar+0x84>)
1000374a:	1812      	adds	r2, r2, r0
1000374c:	414b      	adcs	r3, r1
1000374e:	2180      	movs	r1, #128	@ 0x80
10003750:	0609      	lsls	r1, r1, #24
10003752:	428b      	cmp	r3, r1
10003754:	d302      	bcc.n	1000375c <__wrap_putchar+0x2c>
10003756:	2201      	movs	r2, #1
10003758:	4b17      	ldr	r3, [pc, #92]	@ (100037b8 <__wrap_putchar+0x88>)
1000375a:	4252      	negs	r2, r2
1000375c:	4917      	ldr	r1, [pc, #92]	@ (100037bc <__wrap_putchar+0x8c>)
1000375e:	0008      	movs	r0, r1
10003760:	4688      	mov	r8, r1
10003762:	f000 f9cd 	bl	10003b00 <__mutex_try_enter_block_until_veneer>
10003766:	4b16      	ldr	r3, [pc, #88]	@ (100037c0 <__wrap_putchar+0x90>)
10003768:	4681      	mov	r9, r0
1000376a:	681c      	ldr	r4, [r3, #0]
1000376c:	2c00      	cmp	r4, #0
1000376e:	d014      	beq.n	1000379a <__wrap_putchar+0x6a>
10003770:	4f14      	ldr	r7, [pc, #80]	@ (100037c4 <__wrap_putchar+0x94>)
10003772:	e002      	b.n	1000377a <__wrap_putchar+0x4a>
10003774:	6924      	ldr	r4, [r4, #16]
10003776:	2c00      	cmp	r4, #0
10003778:	d00f      	beq.n	1000379a <__wrap_putchar+0x6a>
1000377a:	6823      	ldr	r3, [r4, #0]
1000377c:	2b00      	cmp	r3, #0
1000377e:	d0f9      	beq.n	10003774 <__wrap_putchar+0x44>
10003780:	683b      	ldr	r3, [r7, #0]
10003782:	2b00      	cmp	r3, #0
10003784:	d001      	beq.n	1000378a <__wrap_putchar+0x5a>
10003786:	429c      	cmp	r4, r3
10003788:	d1f4      	bne.n	10003774 <__wrap_putchar+0x44>
1000378a:	0020      	movs	r0, r4
1000378c:	2201      	movs	r2, #1
1000378e:	0029      	movs	r1, r5
10003790:	f7ff fee6 	bl	10003560 <stdio_out_chars_crlf>
10003794:	6924      	ldr	r4, [r4, #16]
10003796:	2c00      	cmp	r4, #0
10003798:	d1ef      	bne.n	1000377a <__wrap_putchar+0x4a>
1000379a:	464b      	mov	r3, r9
1000379c:	2b00      	cmp	r3, #0
1000379e:	d105      	bne.n	100037ac <__wrap_putchar+0x7c>
100037a0:	0030      	movs	r0, r6
100037a2:	b003      	add	sp, #12
100037a4:	bcc0      	pop	{r6, r7}
100037a6:	46b9      	mov	r9, r7
100037a8:	46b0      	mov	r8, r6
100037aa:	bdf0      	pop	{r4, r5, r6, r7, pc}
100037ac:	4640      	mov	r0, r8
100037ae:	f000 f997 	bl	10003ae0 <__mutex_exit_veneer>
100037b2:	e7f5      	b.n	100037a0 <__wrap_putchar+0x70>
100037b4:	000f4240 	.word	0x000f4240
100037b8:	7fffffff 	.word	0x7fffffff
100037bc:	200002b8 	.word	0x200002b8
100037c0:	200006c4 	.word	0x200006c4
100037c4:	20000740 	.word	0x20000740

100037c8 <__wrap_puts>:
100037c8:	b570      	push	{r4, r5, r6, lr}
100037ca:	0004      	movs	r4, r0
100037cc:	f000 f956 	bl	10003a7c <strlen>
100037d0:	2301      	movs	r3, #1
100037d2:	0001      	movs	r1, r0
100037d4:	0005      	movs	r5, r0
100037d6:	2201      	movs	r2, #1
100037d8:	0020      	movs	r0, r4
100037da:	f7ff ff0b 	bl	100035f4 <stdio_put_string>
100037de:	4b08      	ldr	r3, [pc, #32]	@ (10003800 <__wrap_puts+0x38>)
100037e0:	681c      	ldr	r4, [r3, #0]
100037e2:	2c00      	cmp	r4, #0
100037e4:	d006      	beq.n	100037f4 <__wrap_puts+0x2c>
100037e6:	6863      	ldr	r3, [r4, #4]
100037e8:	2b00      	cmp	r3, #0
100037ea:	d005      	beq.n	100037f8 <__wrap_puts+0x30>
100037ec:	4798      	blx	r3
100037ee:	6924      	ldr	r4, [r4, #16]
100037f0:	2c00      	cmp	r4, #0
100037f2:	d1f8      	bne.n	100037e6 <__wrap_puts+0x1e>
100037f4:	0028      	movs	r0, r5
100037f6:	bd70      	pop	{r4, r5, r6, pc}
100037f8:	6924      	ldr	r4, [r4, #16]
100037fa:	2c00      	cmp	r4, #0
100037fc:	d1f3      	bne.n	100037e6 <__wrap_puts+0x1e>
100037fe:	e7f9      	b.n	100037f4 <__wrap_puts+0x2c>
10003800:	200006c4 	.word	0x200006c4

10003804 <stdio_uart_out_chars>:
10003804:	b5f0      	push	{r4, r5, r6, r7, lr}
10003806:	2900      	cmp	r1, #0
10003808:	dd15      	ble.n	10003836 <stdio_uart_out_chars+0x32>
1000380a:	4b0e      	ldr	r3, [pc, #56]	@ (10003844 <stdio_uart_out_chars+0x40>)
1000380c:	270d      	movs	r7, #13
1000380e:	681a      	ldr	r2, [r3, #0]
10003810:	4b0d      	ldr	r3, [pc, #52]	@ (10003848 <stdio_uart_out_chars+0x44>)
10003812:	4c0e      	ldr	r4, [pc, #56]	@ (1000384c <stdio_uart_out_chars+0x48>)
10003814:	18d3      	adds	r3, r2, r3
10003816:	425d      	negs	r5, r3
10003818:	416b      	adcs	r3, r5
1000381a:	1845      	adds	r5, r0, r1
1000381c:	2120      	movs	r1, #32
1000381e:	005b      	lsls	r3, r3, #1
10003820:	5f1e      	ldrsh	r6, [r3, r4]
10003822:	7804      	ldrb	r4, [r0, #0]
10003824:	42a6      	cmp	r6, r4
10003826:	d007      	beq.n	10003838 <stdio_uart_out_chars+0x34>
10003828:	6993      	ldr	r3, [r2, #24]
1000382a:	4219      	tst	r1, r3
1000382c:	d1fc      	bne.n	10003828 <stdio_uart_out_chars+0x24>
1000382e:	3001      	adds	r0, #1
10003830:	6014      	str	r4, [r2, #0]
10003832:	42a8      	cmp	r0, r5
10003834:	d1f5      	bne.n	10003822 <stdio_uart_out_chars+0x1e>
10003836:	bdf0      	pop	{r4, r5, r6, r7, pc}
10003838:	6993      	ldr	r3, [r2, #24]
1000383a:	4219      	tst	r1, r3
1000383c:	d1fc      	bne.n	10003838 <stdio_uart_out_chars+0x34>
1000383e:	6017      	str	r7, [r2, #0]
10003840:	e7f2      	b.n	10003828 <stdio_uart_out_chars+0x24>
10003842:	46c0      	nop			@ (mov r8, r8)
10003844:	20000c34 	.word	0x20000c34
10003848:	bffc8000 	.word	0xbffc8000
1000384c:	20000c30 	.word	0x20000c30

10003850 <stdio_uart_in_chars>:
10003850:	4b20      	ldr	r3, [pc, #128]	@ (100038d4 <stdio_uart_in_chars+0x84>)
10003852:	b570      	push	{r4, r5, r6, lr}
10003854:	0004      	movs	r4, r0
10003856:	1e0d      	subs	r5, r1, #0
10003858:	681e      	ldr	r6, [r3, #0]
1000385a:	dd2a      	ble.n	100038b2 <stdio_uart_in_chars+0x62>
1000385c:	2000      	movs	r0, #0
1000385e:	2110      	movs	r1, #16
10003860:	4b1d      	ldr	r3, [pc, #116]	@ (100038d8 <stdio_uart_in_chars+0x88>)
10003862:	3c01      	subs	r4, #1
10003864:	681a      	ldr	r2, [r3, #0]
10003866:	6993      	ldr	r3, [r2, #24]
10003868:	4219      	tst	r1, r3
1000386a:	d114      	bne.n	10003896 <stdio_uart_in_chars+0x46>
1000386c:	3001      	adds	r0, #1
1000386e:	6993      	ldr	r3, [r2, #24]
10003870:	4219      	tst	r1, r3
10003872:	d1fc      	bne.n	1000386e <stdio_uart_in_chars+0x1e>
10003874:	6813      	ldr	r3, [r2, #0]
10003876:	5423      	strb	r3, [r4, r0]
10003878:	4285      	cmp	r5, r0
1000387a:	d1f4      	bne.n	10003866 <stdio_uart_in_chars+0x16>
1000387c:	2e00      	cmp	r6, #0
1000387e:	d008      	beq.n	10003892 <stdio_uart_in_chars+0x42>
10003880:	2350      	movs	r3, #80	@ 0x50
10003882:	6393      	str	r3, [r2, #56]	@ 0x38
10003884:	6b51      	ldr	r1, [r2, #52]	@ 0x34
10003886:	3b18      	subs	r3, #24
10003888:	400b      	ands	r3, r1
1000388a:	4914      	ldr	r1, [pc, #80]	@ (100038dc <stdio_uart_in_chars+0x8c>)
1000388c:	468c      	mov	ip, r1
1000388e:	4462      	add	r2, ip
10003890:	6013      	str	r3, [r2, #0]
10003892:	0028      	movs	r0, r5
10003894:	e00c      	b.n	100038b0 <stdio_uart_in_chars+0x60>
10003896:	2e00      	cmp	r6, #0
10003898:	d008      	beq.n	100038ac <stdio_uart_in_chars+0x5c>
1000389a:	2350      	movs	r3, #80	@ 0x50
1000389c:	6393      	str	r3, [r2, #56]	@ 0x38
1000389e:	6b51      	ldr	r1, [r2, #52]	@ 0x34
100038a0:	3b18      	subs	r3, #24
100038a2:	400b      	ands	r3, r1
100038a4:	490d      	ldr	r1, [pc, #52]	@ (100038dc <stdio_uart_in_chars+0x8c>)
100038a6:	468c      	mov	ip, r1
100038a8:	4462      	add	r2, ip
100038aa:	6013      	str	r3, [r2, #0]
100038ac:	2800      	cmp	r0, #0
100038ae:	d00d      	beq.n	100038cc <stdio_uart_in_chars+0x7c>
100038b0:	bd70      	pop	{r4, r5, r6, pc}
100038b2:	2e00      	cmp	r6, #0
100038b4:	d00a      	beq.n	100038cc <stdio_uart_in_chars+0x7c>
100038b6:	2250      	movs	r2, #80	@ 0x50
100038b8:	4b07      	ldr	r3, [pc, #28]	@ (100038d8 <stdio_uart_in_chars+0x88>)
100038ba:	681b      	ldr	r3, [r3, #0]
100038bc:	639a      	str	r2, [r3, #56]	@ 0x38
100038be:	6b59      	ldr	r1, [r3, #52]	@ 0x34
100038c0:	3a18      	subs	r2, #24
100038c2:	400a      	ands	r2, r1
100038c4:	4905      	ldr	r1, [pc, #20]	@ (100038dc <stdio_uart_in_chars+0x8c>)
100038c6:	468c      	mov	ip, r1
100038c8:	4463      	add	r3, ip
100038ca:	601a      	str	r2, [r3, #0]
100038cc:	2003      	movs	r0, #3
100038ce:	4240      	negs	r0, r0
100038d0:	e7ee      	b.n	100038b0 <stdio_uart_in_chars+0x60>
100038d2:	46c0      	nop			@ (mov r8, r8)
100038d4:	20000690 	.word	0x20000690
100038d8:	20000c34 	.word	0x20000c34
100038dc:	00001034 	.word	0x00001034

100038e0 <on_uart_rx>:
100038e0:	4b06      	ldr	r3, [pc, #24]	@ (100038fc <on_uart_rx+0x1c>)
100038e2:	b510      	push	{r4, lr}
100038e4:	681b      	ldr	r3, [r3, #0]
100038e6:	2b00      	cmp	r3, #0
100038e8:	d006      	beq.n	100038f8 <on_uart_rx+0x18>
100038ea:	2100      	movs	r1, #0
100038ec:	4a04      	ldr	r2, [pc, #16]	@ (10003900 <on_uart_rx+0x20>)
100038ee:	6812      	ldr	r2, [r2, #0]
100038f0:	6391      	str	r1, [r2, #56]	@ 0x38
100038f2:	4a04      	ldr	r2, [pc, #16]	@ (10003904 <on_uart_rx+0x24>)
100038f4:	6810      	ldr	r0, [r2, #0]
100038f6:	4798      	blx	r3
100038f8:	bd10      	pop	{r4, pc}
100038fa:	46c0      	nop			@ (mov r8, r8)
100038fc:	20000690 	.word	0x20000690
10003900:	20000c34 	.word	0x20000c34
10003904:	20000694 	.word	0x20000694

10003908 <stdio_uart_out_flush>:
10003908:	2208      	movs	r2, #8
1000390a:	4902      	ldr	r1, [pc, #8]	@ (10003914 <stdio_uart_out_flush+0xc>)
1000390c:	698b      	ldr	r3, [r1, #24]
1000390e:	421a      	tst	r2, r3
10003910:	d1fc      	bne.n	1000390c <stdio_uart_out_flush+0x4>
10003912:	4770      	bx	lr
10003914:	40034000 	.word	0x40034000

10003918 <stdio_uart_set_chars_available_callback>:
10003918:	4b1c      	ldr	r3, [pc, #112]	@ (1000398c <stdio_uart_set_chars_available_callback+0x74>)
1000391a:	b5f0      	push	{r4, r5, r6, r7, lr}
1000391c:	681a      	ldr	r2, [r3, #0]
1000391e:	46c6      	mov	lr, r8
10003920:	4698      	mov	r8, r3
10003922:	4b1b      	ldr	r3, [pc, #108]	@ (10003990 <stdio_uart_set_chars_available_callback+0x78>)
10003924:	000e      	movs	r6, r1
10003926:	18d3      	adds	r3, r2, r3
10003928:	4259      	negs	r1, r3
1000392a:	414b      	adcs	r3, r1
1000392c:	4f19      	ldr	r7, [pc, #100]	@ (10003994 <stdio_uart_set_chars_available_callback+0x7c>)
1000392e:	3314      	adds	r3, #20
10003930:	001c      	movs	r4, r3
10003932:	0005      	movs	r5, r0
10003934:	b500      	push	{lr}
10003936:	683b      	ldr	r3, [r7, #0]
10003938:	2800      	cmp	r0, #0
1000393a:	d007      	beq.n	1000394c <stdio_uart_set_chars_available_callback+0x34>
1000393c:	2b00      	cmp	r3, #0
1000393e:	d011      	beq.n	10003964 <stdio_uart_set_chars_available_callback+0x4c>
10003940:	4b15      	ldr	r3, [pc, #84]	@ (10003998 <stdio_uart_set_chars_available_callback+0x80>)
10003942:	603d      	str	r5, [r7, #0]
10003944:	601e      	str	r6, [r3, #0]
10003946:	bc80      	pop	{r7}
10003948:	46b8      	mov	r8, r7
1000394a:	bdf0      	pop	{r4, r5, r6, r7, pc}
1000394c:	2b00      	cmp	r3, #0
1000394e:	d0f7      	beq.n	10003940 <stdio_uart_set_chars_available_callback+0x28>
10003950:	6390      	str	r0, [r2, #56]	@ 0x38
10003952:	2100      	movs	r1, #0
10003954:	0020      	movs	r0, r4
10003956:	f7fe fa5d 	bl	10001e14 <irq_set_enabled>
1000395a:	0020      	movs	r0, r4
1000395c:	490f      	ldr	r1, [pc, #60]	@ (1000399c <stdio_uart_set_chars_available_callback+0x84>)
1000395e:	f7fe fa95 	bl	10001e8c <irq_remove_handler>
10003962:	e7ed      	b.n	10003940 <stdio_uart_set_chars_available_callback+0x28>
10003964:	0020      	movs	r0, r4
10003966:	490d      	ldr	r1, [pc, #52]	@ (1000399c <stdio_uart_set_chars_available_callback+0x84>)
10003968:	f7fe fa66 	bl	10001e38 <irq_set_exclusive_handler>
1000396c:	2101      	movs	r1, #1
1000396e:	0020      	movs	r0, r4
10003970:	f7fe fa50 	bl	10001e14 <irq_set_enabled>
10003974:	4643      	mov	r3, r8
10003976:	2250      	movs	r2, #80	@ 0x50
10003978:	681b      	ldr	r3, [r3, #0]
1000397a:	639a      	str	r2, [r3, #56]	@ 0x38
1000397c:	6b59      	ldr	r1, [r3, #52]	@ 0x34
1000397e:	3a18      	subs	r2, #24
10003980:	400a      	ands	r2, r1
10003982:	4907      	ldr	r1, [pc, #28]	@ (100039a0 <stdio_uart_set_chars_available_callback+0x88>)
10003984:	468c      	mov	ip, r1
10003986:	4463      	add	r3, ip
10003988:	601a      	str	r2, [r3, #0]
1000398a:	e7d9      	b.n	10003940 <stdio_uart_set_chars_available_callback+0x28>
1000398c:	20000c34 	.word	0x20000c34
10003990:	bffc8000 	.word	0xbffc8000
10003994:	20000690 	.word	0x20000690
10003998:	20000694 	.word	0x20000694
1000399c:	100038e1 	.word	0x100038e1
100039a0:	00001034 	.word	0x00001034

100039a4 <stdio_uart_init>:
100039a4:	4b0d      	ldr	r3, [pc, #52]	@ (100039dc <stdio_uart_init+0x38>)
100039a6:	b510      	push	{r4, lr}
100039a8:	781b      	ldrb	r3, [r3, #0]
100039aa:	4b0d      	ldr	r3, [pc, #52]	@ (100039e0 <stdio_uart_init+0x3c>)
100039ac:	4c0d      	ldr	r4, [pc, #52]	@ (100039e4 <stdio_uart_init+0x40>)
100039ae:	781b      	ldrb	r3, [r3, #0]
100039b0:	4b0d      	ldr	r3, [pc, #52]	@ (100039e8 <stdio_uart_init+0x44>)
100039b2:	2102      	movs	r1, #2
100039b4:	781b      	ldrb	r3, [r3, #0]
100039b6:	4b0d      	ldr	r3, [pc, #52]	@ (100039ec <stdio_uart_init+0x48>)
100039b8:	2000      	movs	r0, #0
100039ba:	6023      	str	r3, [r4, #0]
100039bc:	f7fe f98a 	bl	10001cd4 <gpio_set_function>
100039c0:	2102      	movs	r1, #2
100039c2:	2001      	movs	r0, #1
100039c4:	f7fe f986 	bl	10001cd4 <gpio_set_function>
100039c8:	21e1      	movs	r1, #225	@ 0xe1
100039ca:	6820      	ldr	r0, [r4, #0]
100039cc:	0249      	lsls	r1, r1, #9
100039ce:	f7ff f8b7 	bl	10002b40 <uart_init>
100039d2:	2101      	movs	r1, #1
100039d4:	4806      	ldr	r0, [pc, #24]	@ (100039f0 <stdio_uart_init+0x4c>)
100039d6:	f7ff fe8d 	bl	100036f4 <stdio_set_driver_enabled>
100039da:	bd10      	pop	{r4, pc}
100039dc:	10004198 	.word	0x10004198
100039e0:	10004194 	.word	0x10004194
100039e4:	20000c34 	.word	0x20000c34
100039e8:	10004190 	.word	0x10004190
100039ec:	40034000 	.word	0x40034000
100039f0:	200002a0 	.word	0x200002a0

100039f4 <strcmp>:
100039f4:	4602      	mov	r2, r0
100039f6:	b570      	push	{r4, r5, r6, lr}
100039f8:	430a      	orrs	r2, r1
100039fa:	0792      	lsls	r2, r2, #30
100039fc:	d12a      	bne.n	10003a54 <strcmp+0x60>
100039fe:	4d1e      	ldr	r5, [pc, #120]	@ (10003a78 <strcmp+0x84>)
10003a00:	01ee      	lsls	r6, r5, #7
10003a02:	c804      	ldmia	r0!, {r2}
10003a04:	c908      	ldmia	r1!, {r3}
10003a06:	1b54      	subs	r4, r2, r5
10003a08:	4394      	bics	r4, r2
10003a0a:	4034      	ands	r4, r6
10003a0c:	d017      	beq.n	10003a3e <strcmp+0x4a>
10003a0e:	b2d0      	uxtb	r0, r2
10003a10:	b2d9      	uxtb	r1, r3
10003a12:	1a40      	subs	r0, r0, r1
10003a14:	0621      	lsls	r1, r4, #24
10003a16:	4301      	orrs	r1, r0
10003a18:	d110      	bne.n	10003a3c <strcmp+0x48>
10003a1a:	b290      	uxth	r0, r2
10003a1c:	b299      	uxth	r1, r3
10003a1e:	1a40      	subs	r0, r0, r1
10003a20:	0421      	lsls	r1, r4, #16
10003a22:	4301      	orrs	r1, r0
10003a24:	d10a      	bne.n	10003a3c <strcmp+0x48>
10003a26:	0210      	lsls	r0, r2, #8
10003a28:	0219      	lsls	r1, r3, #8
10003a2a:	0a00      	lsrs	r0, r0, #8
10003a2c:	0a09      	lsrs	r1, r1, #8
10003a2e:	1a40      	subs	r0, r0, r1
10003a30:	0221      	lsls	r1, r4, #8
10003a32:	4301      	orrs	r1, r0
10003a34:	d102      	bne.n	10003a3c <strcmp+0x48>
10003a36:	0e10      	lsrs	r0, r2, #24
10003a38:	0e19      	lsrs	r1, r3, #24
10003a3a:	1a40      	subs	r0, r0, r1
10003a3c:	bd70      	pop	{r4, r5, r6, pc}
10003a3e:	429a      	cmp	r2, r3
10003a40:	d0df      	beq.n	10003a02 <strcmp+0xe>
10003a42:	ba10      	rev	r0, r2
10003a44:	ba19      	rev	r1, r3
10003a46:	4288      	cmp	r0, r1
10003a48:	d901      	bls.n	10003a4e <strcmp+0x5a>
10003a4a:	2001      	movs	r0, #1
10003a4c:	bd70      	pop	{r4, r5, r6, pc}
10003a4e:	2000      	movs	r0, #0
10003a50:	43c0      	mvns	r0, r0
10003a52:	bd70      	pop	{r4, r5, r6, pc}
10003a54:	7802      	ldrb	r2, [r0, #0]
10003a56:	780b      	ldrb	r3, [r1, #0]
10003a58:	3001      	adds	r0, #1
10003a5a:	3101      	adds	r1, #1
10003a5c:	2a00      	cmp	r2, #0
10003a5e:	d009      	beq.n	10003a74 <strcmp+0x80>
10003a60:	429a      	cmp	r2, r3
10003a62:	d107      	bne.n	10003a74 <strcmp+0x80>
10003a64:	7802      	ldrb	r2, [r0, #0]
10003a66:	780b      	ldrb	r3, [r1, #0]
10003a68:	3001      	adds	r0, #1
10003a6a:	3101      	adds	r1, #1
10003a6c:	2a00      	cmp	r2, #0
10003a6e:	d001      	beq.n	10003a74 <strcmp+0x80>
10003a70:	429a      	cmp	r2, r3
10003a72:	d0ef      	beq.n	10003a54 <strcmp+0x60>
10003a74:	1ad0      	subs	r0, r2, r3
10003a76:	bd70      	pop	{r4, r5, r6, pc}
10003a78:	01010101 	.word	0x01010101

10003a7c <strlen>:
10003a7c:	b510      	push	{r4, lr}
10003a7e:	0783      	lsls	r3, r0, #30
10003a80:	d00a      	beq.n	10003a98 <strlen+0x1c>
10003a82:	0003      	movs	r3, r0
10003a84:	2103      	movs	r1, #3
10003a86:	e002      	b.n	10003a8e <strlen+0x12>
10003a88:	3301      	adds	r3, #1
10003a8a:	420b      	tst	r3, r1
10003a8c:	d005      	beq.n	10003a9a <strlen+0x1e>
10003a8e:	781a      	ldrb	r2, [r3, #0]
10003a90:	2a00      	cmp	r2, #0
10003a92:	d1f9      	bne.n	10003a88 <strlen+0xc>
10003a94:	1a18      	subs	r0, r3, r0
10003a96:	bd10      	pop	{r4, pc}
10003a98:	0003      	movs	r3, r0
10003a9a:	6819      	ldr	r1, [r3, #0]
10003a9c:	4a0c      	ldr	r2, [pc, #48]	@ (10003ad0 <strlen+0x54>)
10003a9e:	4c0d      	ldr	r4, [pc, #52]	@ (10003ad4 <strlen+0x58>)
10003aa0:	188a      	adds	r2, r1, r2
10003aa2:	438a      	bics	r2, r1
10003aa4:	4222      	tst	r2, r4
10003aa6:	d10f      	bne.n	10003ac8 <strlen+0x4c>
10003aa8:	6859      	ldr	r1, [r3, #4]
10003aaa:	4a09      	ldr	r2, [pc, #36]	@ (10003ad0 <strlen+0x54>)
10003aac:	3304      	adds	r3, #4
10003aae:	188a      	adds	r2, r1, r2
10003ab0:	438a      	bics	r2, r1
10003ab2:	4222      	tst	r2, r4
10003ab4:	d108      	bne.n	10003ac8 <strlen+0x4c>
10003ab6:	6859      	ldr	r1, [r3, #4]
10003ab8:	4a05      	ldr	r2, [pc, #20]	@ (10003ad0 <strlen+0x54>)
10003aba:	3304      	adds	r3, #4
10003abc:	188a      	adds	r2, r1, r2
10003abe:	438a      	bics	r2, r1
10003ac0:	4222      	tst	r2, r4
10003ac2:	d0f1      	beq.n	10003aa8 <strlen+0x2c>
10003ac4:	e000      	b.n	10003ac8 <strlen+0x4c>
10003ac6:	3301      	adds	r3, #1
10003ac8:	781a      	ldrb	r2, [r3, #0]
10003aca:	2a00      	cmp	r2, #0
10003acc:	d1fb      	bne.n	10003ac6 <strlen+0x4a>
10003ace:	e7e1      	b.n	10003a94 <strlen+0x18>
10003ad0:	fefefeff 	.word	0xfefefeff
10003ad4:	80808080 	.word	0x80808080

10003ad8 <_fini>:
10003ad8:	b5f8      	push	{r3, r4, r5, r6, r7, lr}
10003ada:	46c0      	nop			@ (mov r8, r8)
10003adc:	0000      	movs	r0, r0
	...

10003ae0 <__mutex_exit_veneer>:
10003ae0:	b401      	push	{r0}
10003ae2:	4802      	ldr	r0, [pc, #8]	@ (10003aec <__mutex_exit_veneer+0xc>)
10003ae4:	4684      	mov	ip, r0
10003ae6:	bc01      	pop	{r0}
10003ae8:	4760      	bx	ip
10003aea:	bf00      	nop
10003aec:	2000015d 	.word	0x2000015d

10003af0 <____aeabi_idiv0_veneer>:
10003af0:	b401      	push	{r0}
10003af2:	4802      	ldr	r0, [pc, #8]	@ (10003afc <____aeabi_idiv0_veneer+0xc>)
10003af4:	4684      	mov	ip, r0
10003af6:	bc01      	pop	{r0}
10003af8:	4760      	bx	ip
10003afa:	bf00      	nop
10003afc:	20000185 	.word	0x20000185

10003b00 <__mutex_try_enter_block_until_veneer>:
10003b00:	b401      	push	{r0}
10003b02:	4802      	ldr	r0, [pc, #8]	@ (10003b0c <__mutex_try_enter_block_until_veneer+0xc>)
10003b04:	4684      	mov	ip, r0
10003b06:	bc01      	pop	{r0}
10003b08:	4760      	bx	ip
10003b0a:	bf00      	nop
10003b0c:	200000c1 	.word	0x200000c1

10003b10 <__pre_init_runtime_init_early_resets>:
10003b10:	100030e5                                .0..

10003b14 <__pre_init_runtime_init_usb_power_down>:
10003b14:	10003111 1000325d 100034b1 1000331d     .1..]2...4...3..
10003b24:	10003421                                !4..

10003b28 <__pre_init_runtime_init_clocks>:
10003b28:	10003185                                .1..

10003b2c <__pre_init_runtime_init_post_clock_resets>:
10003b2c:	1000312d                                -1..

10003b30 <__pre_init_runtime_init_rp2040_gpio_ie_disable>:
10003b30:	1000314d                                M1..

10003b34 <__pre_init_runtime_init_spin_locks_reset>:
10003b34:	10003161                                a1..

10003b38 <__pre_init_runtime_init_mutex>:
10003b38:	10002125                                %!..

10003b3c <__pre_init_runtime_init_install_ram_vector_table>:
10003b3c:	10003169                                i1..

10003b40 <__pre_init_runtime_init_default_alarm_pool>:
10003b40:	10002489                                .$..

10003b44 <__pre_init_first_per_core_initializer>:
10003b44:	100030ad                                .0..

10003b48 <__pre_init_runtime_init_per_core_irq_priorities>:
10003b48:	10001df1                                ....

10003b4c <__frame_dummy_init_array_entry>:
10003b4c:	100002b1                                ....

Disassembly of section .data:

200000c0 <mutex_try_enter_block_until>:
200000c0:	b5f0      	push	{r4, r5, r6, r7, lr}
200000c2:	46c6      	mov	lr, r8
200000c4:	0015      	movs	r5, r2
200000c6:	b500      	push	{lr}
200000c8:	0004      	movs	r4, r0
200000ca:	001e      	movs	r6, r3
200000cc:	6802      	ldr	r2, [r0, #0]
200000ce:	f3ef 8110 	mrs	r1, PRIMASK
200000d2:	b672      	cpsid	i
200000d4:	6813      	ldr	r3, [r2, #0]
200000d6:	2b00      	cmp	r3, #0
200000d8:	d0fc      	beq.n	200000d4 <mutex_try_enter_block_until+0x14>
200000da:	f3bf 8f5f 	dmb	sy
200000de:	2304      	movs	r3, #4
200000e0:	56e3      	ldrsb	r3, [r4, r3]
200000e2:	2b00      	cmp	r3, #0
200000e4:	db2d      	blt.n	20000142 <mutex_try_enter_block_until+0x82>
200000e6:	6822      	ldr	r2, [r4, #0]
200000e8:	f3bf 8f5f 	dmb	sy
200000ec:	2000      	movs	r0, #0
200000ee:	6010      	str	r0, [r2, #0]
200000f0:	f381 8810 	msr	PRIMASK, r1
200000f4:	22d0      	movs	r2, #208	@ 0xd0
200000f6:	0612      	lsls	r2, r2, #24
200000f8:	7812      	ldrb	r2, [r2, #0]
200000fa:	b252      	sxtb	r2, r2
200000fc:	4690      	mov	r8, r2
200000fe:	429a      	cmp	r2, r3
20000100:	d103      	bne.n	2000010a <mutex_try_enter_block_until+0x4a>
20000102:	2000      	movs	r0, #0
20000104:	bc80      	pop	{r7}
20000106:	46b8      	mov	r8, r7
20000108:	bdf0      	pop	{r4, r5, r6, r7, pc}
2000010a:	2700      	movs	r7, #0
2000010c:	e00b      	b.n	20000126 <mutex_try_enter_block_until+0x66>
2000010e:	6823      	ldr	r3, [r4, #0]
20000110:	f3bf 8f5f 	dmb	sy
20000114:	601f      	str	r7, [r3, #0]
20000116:	f381 8810 	msr	PRIMASK, r1
2000011a:	0028      	movs	r0, r5
2000011c:	0031      	movs	r1, r6
2000011e:	f000 f833 	bl	20000188 <__best_effort_wfe_or_timeout_veneer>
20000122:	2800      	cmp	r0, #0
20000124:	d1ed      	bne.n	20000102 <mutex_try_enter_block_until+0x42>
20000126:	6822      	ldr	r2, [r4, #0]
20000128:	f3ef 8110 	mrs	r1, PRIMASK
2000012c:	b672      	cpsid	i
2000012e:	6813      	ldr	r3, [r2, #0]
20000130:	2b00      	cmp	r3, #0
20000132:	d0fc      	beq.n	2000012e <mutex_try_enter_block_until+0x6e>
20000134:	f3bf 8f5f 	dmb	sy
20000138:	7923      	ldrb	r3, [r4, #4]
2000013a:	2b7f      	cmp	r3, #127	@ 0x7f
2000013c:	d9e7      	bls.n	2000010e <mutex_try_enter_block_until+0x4e>
2000013e:	4643      	mov	r3, r8
20000140:	e002      	b.n	20000148 <mutex_try_enter_block_until+0x88>
20000142:	23d0      	movs	r3, #208	@ 0xd0
20000144:	061b      	lsls	r3, r3, #24
20000146:	681b      	ldr	r3, [r3, #0]
20000148:	7123      	strb	r3, [r4, #4]
2000014a:	6823      	ldr	r3, [r4, #0]
2000014c:	f3bf 8f5f 	dmb	sy
20000150:	2200      	movs	r2, #0
20000152:	601a      	str	r2, [r3, #0]
20000154:	f381 8810 	msr	PRIMASK, r1
20000158:	2001      	movs	r0, #1
2000015a:	e7d3      	b.n	20000104 <mutex_try_enter_block_until+0x44>

2000015c <mutex_exit>:
2000015c:	6802      	ldr	r2, [r0, #0]
2000015e:	f3ef 8110 	mrs	r1, PRIMASK
20000162:	b672      	cpsid	i
20000164:	6813      	ldr	r3, [r2, #0]
20000166:	2b00      	cmp	r3, #0
20000168:	d0fc      	beq.n	20000164 <mutex_exit+0x8>
2000016a:	f3bf 8f5f 	dmb	sy
2000016e:	23ff      	movs	r3, #255	@ 0xff
20000170:	7103      	strb	r3, [r0, #4]
20000172:	6803      	ldr	r3, [r0, #0]
20000174:	f3bf 8f5f 	dmb	sy
20000178:	2200      	movs	r2, #0
2000017a:	601a      	str	r2, [r3, #0]
2000017c:	f381 8810 	msr	PRIMASK, r1
20000180:	bf40      	sev
20000182:	4770      	bx	lr

20000184 <__aeabi_idiv0>:
20000184:	4770      	bx	lr
20000186:	46c0      	nop			@ (mov r8, r8)

20000188 <__best_effort_wfe_or_timeout_veneer>:
20000188:	b401      	push	{r0}
2000018a:	4802      	ldr	r0, [pc, #8]	@ (20000194 <__best_effort_wfe_or_timeout_veneer+0xc>)
2000018c:	4684      	mov	ip, r0
2000018e:	bc01      	pop	{r0}
20000190:	4760      	bx	ip
20000192:	bf00      	nop
20000194:	100027a1 	.word	0x100027a1

20000198 <comp>:
20000198:	00000001                                ....

2000019c <DATA_SEND>:
2000019c:	                                         .

2000019d <ESCAPE>:
2000019d:	                                         ...

200001a0 <MAP_LINK>:
200001a0:	10003dac                                .=..

200001a4 <SEND_MESSAGE>:
200001a4:	10003dc8                                .=..

200001a8 <USER_NUMBER>:
200001a8:	3931392b 39353139 35363039 00000037     +919915990657...

200001b8 <OWNER_NUMBER>:
200001b8:	10003dd4                                .=..

200001bc <GPS_INIT>:
200001bc:	10003de4                                .=..

200001c0 <GPS_STATUS>:
200001c0:	10003e00                                .>..

200001c4 <GPS_LOCATION>:
200001c4:	10003e10                                .>..

200001c8 <GSM_READ_MSG>:
200001c8:	10003e1c                                .>..

200001cc <alpha>:
200001cc:	10004014 10003e28 10003e2c 10003e30     .@..(>..,>..0>..
200001dc:	10003e34 10003e38 10003e3c 10003de0     4>..8>..<>...=..
200001ec:	10003e40 10003e44 10003e48              @>..D>..H>..

200001f8 <GSM_INIT>:
200001f8:	10003d94 10003e4c 10003d50 10003e58     .=..L>..P=..X>..

20000208 <glbColdStart>:
20000208:	10003f94                                .?..

2000020c <glbWarmStart>:
2000020c:	10003fa4                                .?..

20000210 <striped_spin_lock_num>:
20000210:	00000010                                ....

20000214 <irq_handler_chain_slots>:
20000214:	00000000 	.word	0x00000000
20000218:	00010000 	.word	0x00010000
	...
20000224:	00020000 	.word	0x00020000
	...
20000230:	00030000 	.word	0x00030000
	...
2000023c:	00ff0000 	.word	0x00ff0000
20000240:	00000000 	.word	0x00000000

20000244 <irq_handler_chain_first_slot>:
20000244:	b501      	push	{r0, lr}
20000246:	6848      	ldr	r0, [r1, #4]
20000248:	3101      	adds	r1, #1
2000024a:	468e      	mov	lr, r1
2000024c:	4700      	bx	r0

2000024e <irq_handler_chain_remove_tail>:
2000024e:	4670      	mov	r0, lr
20000250:	3809      	subs	r0, #9
20000252:	4901      	ldr	r1, [pc, #4]	@ (20000258 <irq_handler_chain_remove_tail+0xa>)
20000254:	4788      	blx	r1
20000256:	bd01      	pop	{r0, pc}
20000258:	10002061 	.word	0x10002061

2000025c <default_alarm_pool>:
	...
20000270:	200002c0 00000000 00000000 00000000     ... ............

20000280 <aeabi_bits_funcs>:
20000280:	00003350 	.word	0x00003350
20000284:	0000334c 	.word	0x0000334c
20000288:	00003354 	.word	0x00003354
2000028c:	00003352 	.word	0x00003352

20000290 <aeabi_bits_funcs_end>:
20000290:	0000534d 	.word	0x0000534d
20000294:	0000434d 	.word	0x0000434d
20000298:	00003453 	.word	0x00003453
2000029c:	00003443 	.word	0x00003443

200002a0 <stdio_uart>:
200002a0:	10003805 10003909 10003851 10003919     .8...9..Q8...9..
200002b0:	00000000 00000100                       ........

200002b8 <print_mutex>:
	...
